(dp0
S'tagprogress'
p1
(dp2
S'/home/stoye/Media/deagol-music'
p3
(lp4
S'/home/stoye/Media/deagol-music'
p5
aS'/home/stoye/Media/deagol-music/- Bulldog Mansion - Happy Birthday to Me -.mp3'
p6
aS'/home/stoye/Media/deagol-music/00 INC_MM_IT_STEREO MX__Loop_Ster.mp3'
p7
aS'/home/stoye/Media/deagol-music/00 MP2E_ThemeMusic.mp3'
p8
aS'/home/stoye/Media/deagol-music/00 October 11_ 2010_ PAX Celebrit.mp3'
p9
aS'/home/stoye/Media/deagol-music/00 October 11_ 2010_ PAX Celebrit.mp3'
p10
aS'/home/stoye/Media/deagol-music/00 October 11_ 2010_ PAX Celebrit.mp3'
p11
aS'/home/stoye/Media/deagol-music/00 October 11_ 2010_ PAX Celebrit.mp3'
p12
aS'/home/stoye/Media/deagol-music/00 October 11_ 2010_ PAX Celebrit.mp3'
p13
aS'/home/stoye/Media/deagol-music/00 Penny Arcade_ Episode 1_mp3.mp3'
p14
aS'/home/stoye/Media/deagol-music/00 Penny Arcade_ Episode 1_mp3.mp3'
p15
aS'/home/stoye/Media/deagol-music/00 Penny Arcade_ Episode 1_mp3.mp3'
p16
aS'/home/stoye/Media/deagol-music/00 Penny Arcade_ Episode 1_mp3.mp3'
p17
aS'/home/stoye/Media/deagol-music/00 Penny Arcade_ Episode 1_mp3.mp3'
p18
aS'/home/stoye/Media/deagol-music/00 Penny Arcade_ Episode 2_mp3.mp3'
p19
aS'/home/stoye/Media/deagol-music/00 Penny Arcade_ Episode 2_mp3.mp3'
p20
aS'/home/stoye/Media/deagol-music/00 Penny Arcade_ Episode 2_mp3.mp3'
p21
aS'/home/stoye/Media/deagol-music/00 Penny Arcade_ Episode 2_mp3.mp3'
p22
aS'/home/stoye/Media/deagol-music/00 Penny Arcade_ Episode 2_mp3.mp3'
p23
aS'/home/stoye/Media/deagol-music/00 Penny Arcade_ Episode 3_mp3.mp3'
p24
aS'/home/stoye/Media/deagol-music/00 Penny Arcade_ Episode 3_mp3.mp3'
p25
aS'/home/stoye/Media/deagol-music/00 Penny Arcade_ Episode 3_mp3.mp3'
p26
aS'/home/stoye/Media/deagol-music/00 Penny Arcade_ Episode 3_mp3.mp3'
p27
aS'/home/stoye/Media/deagol-music/00 Penny Arcade_ Episode 3_mp3.mp3'
p28
aS'/home/stoye/Media/deagol-music/00 Penny Arcade_ Episode 4_mp3.mp3'
p29
aS'/home/stoye/Media/deagol-music/00 Penny Arcade_ Episode 4_mp3.mp3'
p30
aS'/home/stoye/Media/deagol-music/00 Penny Arcade_ Episode 4_mp3.mp3'
p31
aS'/home/stoye/Media/deagol-music/00 Penny Arcade_ Episode 4_mp3.mp3'
p32
aS'/home/stoye/Media/deagol-music/00 Penny Arcade_ Episode 4_mp3.mp3'
p33
aS'/home/stoye/Media/deagol-music/00 Penny Arcade_ Episode 5_mp3.mp3'
p34
aS'/home/stoye/Media/deagol-music/00 Penny Arcade_ Episode 5_mp3.mp3'
p35
aS'/home/stoye/Media/deagol-music/00 Penny Arcade_ Episode 5_mp3.mp3'
p36
aS'/home/stoye/Media/deagol-music/00 Penny Arcade_ Episode 5_mp3.mp3'
p37
aS'/home/stoye/Media/deagol-music/00 Penny Arcade_ Episode 5_mp3.mp3'
p38
aS'/home/stoye/Media/deagol-music/00 Penny Arcade_ Episode 6_mp3.mp3'
p39
aS'/home/stoye/Media/deagol-music/00 Penny Arcade_ Episode 6_mp3.mp3'
p40
aS'/home/stoye/Media/deagol-music/00 Penny Arcade_ Episode 6_mp3.mp3'
p41
aS'/home/stoye/Media/deagol-music/00 Penny Arcade_ Episode 6_mp3.mp3'
p42
aS'/home/stoye/Media/deagol-music/00 Penny Arcade_ Episode 6_mp3.mp3'
p43
aS'/home/stoye/Media/deagol-music/00 Penny Arcade_ Episode 7_mp3.mp3'
p44
aS'/home/stoye/Media/deagol-music/00 Penny Arcade_ Episode 7_mp3.mp3'
p45
aS'/home/stoye/Media/deagol-music/00 Penny Arcade_ Episode 7_mp3.mp3'
p46
aS'/home/stoye/Media/deagol-music/00 Penny Arcade_ Episode 7_mp3.mp3'
p47
aS'/home/stoye/Media/deagol-music/00 Penny Arcade_ Episode 7_mp3.mp3'
p48
aS'/home/stoye/Media/deagol-music/00 Penny Arcade_ Episode 8_mp3.mp3'
p49
aS'/home/stoye/Media/deagol-music/00 Penny Arcade_ Episode 8_mp3.mp3'
p50
aS'/home/stoye/Media/deagol-music/00 Penny Arcade_ Episode 8_mp3.mp3'
p51
aS'/home/stoye/Media/deagol-music/00 Penny Arcade_ Episode 8_mp3.mp3'
p52
aS'/home/stoye/Media/deagol-music/00 Penny Arcade_ Episode 8_mp3.mp3'
p53
aS'/home/stoye/Media/deagol-music/00 September 11_ 2009_ Penny Arca.mp3'
p54
aS'/home/stoye/Media/deagol-music/00 September 11_ 2009_ Penny Arca.mp3'
p55
aS'/home/stoye/Media/deagol-music/00 September 11_ 2009_ Penny Arca.mp3'
p56
aS'/home/stoye/Media/deagol-music/00 September 11_ 2009_ Penny Arca.mp3'
p57
aS'/home/stoye/Media/deagol-music/00 September 11_ 2009_ Penny Arca.mp3'
p58
aS'/home/stoye/Media/deagol-music/00 Skyfall_BD_lp_20_v2.mp3'
p59
aS'/home/stoye/Media/deagol-music/00 haydn-100-i-adagio-allegro.mp3'
p60
aS'/home/stoye/Media/deagol-music/00 haydn-100-ii-allegretto.mp3'
p61
aS'/home/stoye/Media/deagol-music/00 haydn-100-iii-menuet-moderato.mp3'
p62
aS'/home/stoye/Media/deagol-music/00 haydn-100-iv-finale-presto.mp3'
p63
aS'/home/stoye/Media/deagol-music/00 haydn-symphony-1-i-presto.mp3'
p64
aS'/home/stoye/Media/deagol-music/00 haydn-symphony-1-ii-andante.mp3'
p65
aS'/home/stoye/Media/deagol-music/00 haydn-symphony-1-iii-presto.mp3'
p66
aS'/home/stoye/Media/deagol-music/01-Thinking-About-You--Calvin-Harris.mp3'
p67
aS'/home/stoye/Media/deagol-music/10 Coldplay - Princess of China_m.mp3'
p68
aS'/home/stoye/Media/deagol-music/10 Orchestral Zelda.mp3'
p69
aS'/home/stoye/Media/deagol-music/10 Orchestral Zelda.mp3'
p70
aS'/home/stoye/Media/deagol-music/10 Orchestral Zelda.mp3'
p71
aS'/home/stoye/Media/deagol-music/10 Orchestral Zelda.mp3'
p72
aS'/home/stoye/Media/deagol-music/10 Orchestral Zelda.mp3'
p73
aS'/home/stoye/Media/deagol-music/12 To Infinity.mp3'
p74
aS'/home/stoye/Media/deagol-music/12 To Infinity.mp3'
p75
aS'/home/stoye/Media/deagol-music/12 To Infinity.mp3'
p76
aS'/home/stoye/Media/deagol-music/12 To Infinity.mp3'
p77
aS'/home/stoye/Media/deagol-music/12 To Infinity.mp3'
p78
aS'/home/stoye/Media/deagol-music/13 Butt Plug.mp3'
p79
aS'/home/stoye/Media/deagol-music/13 Butt Plug.mp3'
p80
aS'/home/stoye/Media/deagol-music/13 Butt Plug.mp3'
p81
aS'/home/stoye/Media/deagol-music/13 Butt Plug.mp3'
p82
aS'/home/stoye/Media/deagol-music/13 Butt Plug.mp3'
p83
aS'/home/stoye/Media/deagol-music/2NE1'
p84
aS'/home/stoye/Media/deagol-music/2NE1/2010 The First Mini Album'
p85
aS"/home/stoye/Media/deagol-music/2NE1/2nd Mini Album/01 Can't Nobody _Korean Version_(1).mp3"
p86
aS'/home/stoye/Media/deagol-music/3 Minute Mash - Mashd N Kutcher.mp3'
p87
aS'/home/stoye/Media/deagol-music/A-LittleParty-Never-Killed-Nobody.mp3'
p88
aS'/home/stoye/Media/deagol-music/Adele - Set Fire To The Rain.mp3'
p89
aS'/home/stoye/Media/deagol-music/Applause - Lady Gaga.mp3'
p90
aS'/home/stoye/Media/deagol-music/Brunch - Imagine.mp3'
p91
aS'/home/stoye/Media/deagol-music/DJYaliasJY_LoseYourselfToDance_ICant_Master.mp3'
p92
aS'/home/stoye/Media/deagol-music/Daniel Kim - Pop Danthology 2012.mp3'
p93
aS'/home/stoye/Media/deagol-music/David Guetta (feat. Sia) - Titanium.mp3'
p94
aS'/home/stoye/Media/deagol-music/Disco-Inferno.mp3'
p95
aS'/home/stoye/Media/deagol-music/Happy_Birthday_To_Me.mp3'
p96
aS'/home/stoye/Media/deagol-music/Holy_Paradise.mp3'
p97
aS'/home/stoye/Media/deagol-music/Imagine.mp3'
p98
aS'/home/stoye/Media/deagol-music/Isosine - Mashup Manifesto III - 01 Alive.mp3'
p99
aS'/home/stoye/Media/deagol-music/Isosine - Mashup Manifesto III - 02 Comes and Goes.mp3'
p100
aS'/home/stoye/Media/deagol-music/Isosine - Mashup Manifesto III - 03 Home at Night.mp3'
p101
aS'/home/stoye/Media/deagol-music/Isosine - Mashup Manifesto III - 04 They Call Me F.R.E.S.H..mp3'
p102
aS'/home/stoye/Media/deagol-music/Isosine - Mashup Manifesto III - 05 Lights Out.mp3'
p103
aS'/home/stoye/Media/deagol-music/Isosine - Mashup Manifesto III - 06 Claritycraft.mp3'
p104
aS'/home/stoye/Media/deagol-music/Isosine - Mashup Manifesto III - 07 Nonstop Pop 2012.mp3'
p105
aS'/home/stoye/Media/deagol-music/Isosine - Mashup Manifesto III - 08 We Are Coming Undone.mp3'
p106
aS'/home/stoye/Media/deagol-music/Isosine - Mashup Manifesto III - 09 Super Miles.mp3'
p107
aS'/home/stoye/Media/deagol-music/Isosine - Mashup Manifesto III - 10 Radioactive Swimming Pools.mp3'
p108
aS'/home/stoye/Media/deagol-music/Isosine - Mashup Manifesto III - 11 Youth.mp3'
p109
aS'/home/stoye/Media/deagol-music/Isosine - Mashup Manifesto III - 12 Wall of Time.mp3'
p110
aS'/home/stoye/Media/deagol-music/Isosine - Mashup Manifesto III - 13 Howling Hands.mp3'
p111
aS'/home/stoye/Media/deagol-music/K.K. Good Day.mp3'
p112
aS'/home/stoye/Media/deagol-music/Love-Sex-Magic--Bodhi-Remix.mp3'
p113
aS'/home/stoye/Media/deagol-music/Mashup 2014 - 2ne1.mp3'
p114
aS'/home/stoye/Media/deagol-music/Papers_Please_Theme.mp3'
p115
aS'/home/stoye/Media/deagol-music/Papers_Please_Theme.mp3'
p116
aS'/home/stoye/Media/deagol-music/Party-Dragons-and-Hazel-Sunshine--Caravan-Palace-vs-LMFAO-vs-Kelly-Clarkson-vs-Matisyahu-vs-Queen-vs-My-Chemical-Romance.mp3'
p117
aS'/home/stoye/Media/deagol-music/Pegboard-Nerds-and-Tristam--Razor-Sharp.mp3'
p118
aS'/home/stoye/Media/deagol-music/Pop-Danthology2013.mp3'
p119
aS'/home/stoye/Media/deagol-music/Princess-of-Payphone-Blows-The-Whistle--ft-Flo Rida-Wiz Khalifa-Rihanna-Maroon-5-and-Too-Short.mp3'
p120
aS'/home/stoye/Media/deagol-music/Reiteration [EDM.com Exclusive].mp3'
p121
aS'/home/stoye/Media/deagol-music/Robin Skouteris - PopLove  (2012).mp3'
p122
aS'/home/stoye/Media/deagol-music/Robin Skouteris - PopLove 2 (Mashup of 2013).mp3'
p123
aS'/home/stoye/Media/deagol-music/Robin Skouteris - PopLove 3 (Mashup of 2014).mp3'
p124
aS'/home/stoye/Media/deagol-music/Robin Skouteris feat. V.Sigma - The Partition Turndown (Beyonce Vs Dj Snake Vs Lorde).mp3'
p125
aS'/home/stoye/Media/deagol-music/Robin-Skouteris--The-Moonlight-Hotel.mp3'
p126
aS'/home/stoye/Media/deagol-music/Sam-cha_Seong-jing.mp3'
p127
aS'/home/stoye/Media/deagol-music/Schoolboy--Zombies-Ate-My-Neighbours-Original-Mix.mp3'
p128
aS'/home/stoye/Media/deagol-music/Show Me Where Ya Noms At.mp3'
p129
aS'/home/stoye/Media/deagol-music/Stevie Wonder - Superstition (C2C Remix).mp3'
p130
aS'/home/stoye/Media/deagol-music/TABU - wolsik.mp3'
p131
aS'/home/stoye/Media/deagol-music/The-Real-Slim-Shady.mp3'
p132
aS'/home/stoye/Media/deagol-music/There_She_Is.mp3'
p133
aS'/home/stoye/Media/deagol-music/We-Didnt-Start-the-Fire.flac'
p134
aS'/home/stoye/Media/deagol-music/Wiz Khalifa - Black And Yellow (Feat. Juicy J, Snoop Dogg & T-Pain) (G-Mix).mp3'
p135
aS'/home/stoye/Media/deagol-music/Wolsik.mp3'
p136
aS'/home/stoye/Media/deagol-music/Wrecking Me Up.mp3'
p137
aS'/home/stoye/Media/deagol-music/Wrecking Me Up.mp3'
p138
aS'/home/stoye/Media/deagol-music/fire-alarm.flac'
p139
aS"/home/stoye/Media/deagol-music/sssShawnnnn - Mac n' Cheese (live mashup).mp3"
p140
aS'/home/stoye/Media/deagol-music/sssShawnnnn--Pizza-Rolls.mp3'
p141
ass.