(dp0
S'tagprogress'
p1
(dp2
S'/home/stoye/Media/other-hd-music/music'
p3
(lp4
S'/home/stoye/Media/other-hd-music/music/2NE1/2NE1'
p5
aS'/home/stoye/Media/other-hd-music/music/2NE1/2NE1 2nd Mini Album'
p6
aS'/home/stoye/Media/other-hd-music/music/2NE1/COLLECTION'
p7
aS'/home/stoye/Media/other-hd-music/music/2NE1/CRUSH'
p8
aS'/home/stoye/Media/other-hd-music/music/2NE1/Hate You'
p9
aS'/home/stoye/Media/other-hd-music/music/2NE1/I Am the Best'
p10
aS"/home/stoye/Media/other-hd-music/music/2NE1/Non-Album/Can't Nobody.mp3"
p11
aS"/home/stoye/Media/other-hd-music/music/2NE1/Non-Album/Can't Nobody.mp3"
p12
aS'/home/stoye/Media/other-hd-music/music/2NE1/To Anyone'
p13
aS'/home/stoye/Media/other-hd-music/music/3/The End Is Begun'
p14
aS'/home/stoye/Media/other-hd-music/music/3/Wake Pig'
p15
aS'/home/stoye/Media/other-hd-music/music/3LAU/Non-Album'
p16
aS'/home/stoye/Media/other-hd-music/music/3OH!3/Starstrukk'
p17
aS'/home/stoye/Media/other-hd-music/music/3OH!3/Want'
p18
aS'/home/stoye/Media/other-hd-music/music/50 Cent/Non-Album/Disco Inferno.mp3'
p19
aS'/home/stoye/Media/other-hd-music/music/50 Cent/Non-Album/Disco Inferno.mp3'
p20
aS'/home/stoye/Media/other-hd-music/music/Above & Beyond/Group Therapy'
p21
aS'/home/stoye/Media/other-hd-music/music/Above & Beyond/Group Therapy (Deluxe Version)'
p22
aS'/home/stoye/Media/other-hd-music/music/Adam Lambert/For Your Entertainment'
p23
aS'/home/stoye/Media/other-hd-music/music/Adele/Non-Album/Set Fire to the Rain.mp3'
p24
aS'/home/stoye/Media/other-hd-music/music/Adele/Non-Album/Set Fire to the Rain.mp3'
p25
aS'/home/stoye/Media/other-hd-music/music/Adhesive Wombat/Marsupial Madness'
p26
aS'/home/stoye/Media/other-hd-music/music/Aerosmith/A Little South of Sanity/17 Dream On.mp3'
p27
aS'/home/stoye/Media/other-hd-music/music/Aerosmith/A Little South of Sanity/17 Dream On.mp3'
p28
aS'/home/stoye/Media/other-hd-music/music/Alan Menken/Aladdin'
p29
aS'/home/stoye/Media/other-hd-music/music/Alex Clare/The Lateness of the Hour/04 Too Close.mp3'
p30
aS'/home/stoye/Media/other-hd-music/music/Alex Clare/The Lateness of the Hour/04 Too Close.mp3'
p31
aS'/home/stoye/Media/other-hd-music/music/Alexandre Desplat/The Golden Compass'
p32
aS'/home/stoye/Media/other-hd-music/music/Alice Cooper/Non-Album/No More Mr. Nice Guy.mp3'
p33
aS'/home/stoye/Media/other-hd-music/music/Alice Cooper/Non-Album/No More Mr. Nice Guy.mp3'
p34
aS'/home/stoye/Media/other-hd-music/music/Alicia Lemke/Imaginary'
p35
aS'/home/stoye/Media/other-hd-music/music/Alicia Lemke/Maiden Lane - Single/01 Maiden Lane.mp3'
p36
aS'/home/stoye/Media/other-hd-music/music/Alicia Lemke/Maiden Lane - Single/01 Maiden Lane.mp3'
p37
aS'/home/stoye/Media/other-hd-music/music/Ambeon/Fate of a Dreamer/02 Ashes.mp3'
p38
aS'/home/stoye/Media/other-hd-music/music/Ambeon/Fate of a Dreamer/02 Ashes.mp3'
p39
aS'/home/stoye/Media/other-hd-music/music/Amos Lee/Non-Album/Colors.mp3'
p40
aS'/home/stoye/Media/other-hd-music/music/Amos Lee/Non-Album/Colors.mp3'
p41
aS'/home/stoye/Media/other-hd-music/music/Amy Fairchild/Mr. Heart'
p42
aS'/home/stoye/Media/other-hd-music/music/Andrew Huang/Non-Album/Suits (Push mix).mp3'
p43
aS'/home/stoye/Media/other-hd-music/music/Andrew Huang/Non-Album/The Sun Always Shines on TV.mp3'
p44
aS'/home/stoye/Media/other-hd-music/music/Andrew Huang/Non-Album/Water.mp3'
p45
aS'/home/stoye/Media/other-hd-music/music/Andrew Huang/Non-Album/Water.mp3'
p46
aS'/home/stoye/Media/other-hd-music/music/Andrew Huang/Winter'
p47
aS'/home/stoye/Media/other-hd-music/music/Andrew Lloyd Webber/Love Never Dies'
p48
aS'/home/stoye/Media/other-hd-music/music/Antje Duvekot/Non-Album/Diamond on Your Hand.mp3'
p49
aS'/home/stoye/Media/other-hd-music/music/Antje Duvekot/Non-Album/Judas.mp3'
p50
aS'/home/stoye/Media/other-hd-music/music/Antje Duvekot/Non-Album/Pearls.mp3'
p51
aS'/home/stoye/Media/other-hd-music/music/Antje Duvekot/Non-Album/Pearls.mp3'
p52
aS'/home/stoye/Media/other-hd-music/music/Aperture Science Psychoacoustics Laboratory/Portal 2_ Songs to Test By - Volume 3'
p53
aS'/home/stoye/Media/other-hd-music/music/Apocalyptica/7th Symphony'
p54
aS'/home/stoye/Media/other-hd-music/music/Apocalyptica/Cult'
p55
aS'/home/stoye/Media/other-hd-music/music/Apocalyptica/Inquisition Symphony'
p56
aS'/home/stoye/Media/other-hd-music/music/Apocalyptica/Plays Metallica by Four Cellos'
p57
aS'/home/stoye/Media/other-hd-music/music/Apocalyptica/Reflections'
p58
aS'/home/stoye/Media/other-hd-music/music/Apocalyptica/Worlds Collide'
p59
aS'/home/stoye/Media/other-hd-music/music/Approaching Nirvana/Blocking the Sky'
p60
aS'/home/stoye/Media/other-hd-music/music/Archive/Controlling Crowds/02 Bullets.mp3'
p61
aS'/home/stoye/Media/other-hd-music/music/Archive/Controlling Crowds/02 Bullets.mp3'
p62
aS'/home/stoye/Media/other-hd-music/music/Au5/Non-Album/Reiteration [EDM.com Exclusive].mp3'
p63
aS'/home/stoye/Media/other-hd-music/music/Au5/Non-Album/Reiteration [EDM.com Exclusive].mp3'
p64
aS'/home/stoye/Media/other-hd-music/music/Avicii X Miley Cyrus X T.I. X Anna Kendrick/Non-Album'
p65
aS'/home/stoye/Media/other-hd-music/music/Avril Lavigne/Let Go/10 My World.mp3'
p66
aS'/home/stoye/Media/other-hd-music/music/Avril Lavigne/Let Go/12 Too Much to Ask.mp3'
p67
aS'/home/stoye/Media/other-hd-music/music/Avril Lavigne/Let Go/13 Naked.mp3'
p68
aS'/home/stoye/Media/other-hd-music/music/Avril Lavigne/Let Go/13 Naked.mp3'
p69
aS"/home/stoye/Media/other-hd-music/music/Avril Lavigne/Non-Album/I'm With You.mp3"
p70
aS"/home/stoye/Media/other-hd-music/music/Avril Lavigne/Non-Album/I'm With You.mp3"
p71
aS'/home/stoye/Media/other-hd-music/music/Ayreon/Actual Fantasy_ Revisited'
p72
aS'/home/stoye/Media/other-hd-music/music/Ayreon/Ayreonauts Only'
p73
aS'/home/stoye/Media/other-hd-music/music/Ayreon/Into the Electric Castle'
p74
aS'/home/stoye/Media/other-hd-music/music/Ayreon/Loser'
p75
aS'/home/stoye/Media/other-hd-music/music/Ayreon/Temple of the Cat'
p76
aS'/home/stoye/Media/other-hd-music/music/Ayreon/The Final Experiment'
p77
aS'/home/stoye/Media/other-hd-music/music/Ayreon/The Human Equation'
p78
aS'/home/stoye/Media/other-hd-music/music/Ayreon/The Theory of Everything'
p79
aS'/home/stoye/Media/other-hd-music/music/Ayreon/The Theory of Everything 387'
p80
aS'/home/stoye/Media/other-hd-music/music/Ayreon/Universal Migrator, Part 1_ The Dream Sequencer'
p81
aS'/home/stoye/Media/other-hd-music/music/B.o.B feat. Hayley Williams/Airplanes'
p82
aS'/home/stoye/Media/other-hd-music/music/B.o.B/B.o.B Presents_ The Adventures of Bobby Ray/08 Magic.mp3'
p83
aS'/home/stoye/Media/other-hd-music/music/B.o.B/B.o.B Presents_ The Adventures of Bobby Ray/08 Magic.mp3'
p84
aS'/home/stoye/Media/other-hd-music/music/BOND/Born'
p85
aS'/home/stoye/Media/other-hd-music/music/Ban Ben Long Yi/1996'
p86
aS'/home/stoye/Media/other-hd-music/music/Belle and Sebastian/The Life Pursuit/04 The Blues Are Still Blue.mp3'
p87
aS'/home/stoye/Media/other-hd-music/music/Belle and Sebastian/The Life Pursuit/04 The Blues Are Still Blue.mp3'
p88
aS'/home/stoye/Media/other-hd-music/music/Benny Benassi/Electroman/13 Cinema (Skrillex remix).mp3'
p89
aS'/home/stoye/Media/other-hd-music/music/Benny Benassi/Electroman/13 Cinema (Skrillex remix).mp3'
p90
aS'/home/stoye/Media/other-hd-music/music/Benny Goodman and His Orchestra/Sing, Sing, Sing'
p91
aS'/home/stoye/Media/other-hd-music/music/Billy Joel/Non-Album/And So It Goes.mp3'
p92
aS'/home/stoye/Media/other-hd-music/music/Billy Joel/Non-Album/Summer, Highland Falls.mp3'
p93
aS"/home/stoye/Media/other-hd-music/music/Billy Joel/Non-Album/We Didn't Start the Fire.flac"
p94
aS"/home/stoye/Media/other-hd-music/music/Billy Joel/Non-Album/We Didn't Start the Fire.flac"
p95
aS'/home/stoye/Media/other-hd-music/music/Blackfield/Blackfield'
p96
aS'/home/stoye/Media/other-hd-music/music/Blackfield/Blackfield II'
p97
aS'/home/stoye/Media/other-hd-music/music/Blackfield/Non-Album/Cloudy Now.mp3'
p98
aS'/home/stoye/Media/other-hd-music/music/Blackfield/Non-Album/Perfect World.mp3'
p99
aS'/home/stoye/Media/other-hd-music/music/Blackfield/Non-Album/Perfect World.mp3'
p100
aS"/home/stoye/Media/other-hd-music/music/Blackthorn/It's An Irish Thing/04 Celtic Symphony.mp3"
p101
aS"/home/stoye/Media/other-hd-music/music/Blackthorn/It's An Irish Thing/04 Celtic Symphony.mp3"
p102
aS'/home/stoye/Media/other-hd-music/music/Blind Guardian/A Night at the Opera'
p103
aS'/home/stoye/Media/other-hd-music/music/Blind Guardian/A Twist in the Myth'
p104
aS'/home/stoye/Media/other-hd-music/music/Blind Guardian/Fly'
p105
aS'/home/stoye/Media/other-hd-music/music/Blind Guardian/Imaginations From the Other Side'
p106
aS'/home/stoye/Media/other-hd-music/music/Blind Guardian/Nightfall in Middle-Earth'
p107
aS'/home/stoye/Media/other-hd-music/music/Blind Guardian/Somewhere Far Beyond'
p108
aS'/home/stoye/Media/other-hd-music/music/Blind Guardian/Tales From the Twilight World'
p109
aS'/home/stoye/Media/other-hd-music/music/Blind Guardian/The Forgotten Tales'
p110
aS'/home/stoye/Media/other-hd-music/music/Blizzard Software/Warcraft 2 Game Music/02 Data.mp3'
p111
aS'/home/stoye/Media/other-hd-music/music/Blizzard Software/Warcraft 2 Game Music/03 Audio 1.mp3'
p112
aS'/home/stoye/Media/other-hd-music/music/Blizzard Software/Warcraft 2 Game Music/04 Audio 2.mp3'
p113
aS'/home/stoye/Media/other-hd-music/music/Blizzard Software/Warcraft 2 Game Music/05 Audio 3.mp3'
p114
aS'/home/stoye/Media/other-hd-music/music/Blizzard Software/Warcraft 2 Game Music/06 Audio 4.mp3'
p115
aS'/home/stoye/Media/other-hd-music/music/Blizzard Software/Warcraft 2 Game Music/07 Audio 5.mp3'
p116
aS'/home/stoye/Media/other-hd-music/music/Blizzard Software/Warcraft 2 Game Music/08 Audio 6.mp3'
p117
aS'/home/stoye/Media/other-hd-music/music/Blizzard Software/Warcraft 2 Game Music/09 Audio 7.mp3'
p118
aS'/home/stoye/Media/other-hd-music/music/Blizzard Software/Warcraft 2 Game Music/10 Audio 8.mp3'
p119
aS'/home/stoye/Media/other-hd-music/music/Blizzard Software/Warcraft 2 Game Music/11 Audio 9.mp3'
p120
aS'/home/stoye/Media/other-hd-music/music/Blizzard Software/Warcraft 2 Game Music/12 Audio 10.mp3'
p121
aS'/home/stoye/Media/other-hd-music/music/Blizzard Software/Warcraft 2 Game Music/13 Audio 11.mp3'
p122
aS'/home/stoye/Media/other-hd-music/music/Blizzard Software/Warcraft 2 Game Music/14 Audio 12.mp3'
p123
aS'/home/stoye/Media/other-hd-music/music/Blizzard Software/Warcraft 2 Game Music/15 Audio 13.mp3'
p124
aS'/home/stoye/Media/other-hd-music/music/Blizzard Software/Warcraft 2 Game Music/16 Audio 14.mp3'
p125
aS'/home/stoye/Media/other-hd-music/music/Blizzard Software/Warcraft 2 Game Music/17 Audio 15.mp3'
p126
aS'/home/stoye/Media/other-hd-music/music/Blizzard Software/Warcraft 2 Game Music/17 Audio 15.mp3'
p127
aS'/home/stoye/Media/other-hd-music/music/Blue Moon/White Sun'
p128
aS'/home/stoye/Media/other-hd-music/music/Boards of Canada/The Campfire Headphase/05 Dayvan Cowboy.mp3'
p129
aS'/home/stoye/Media/other-hd-music/music/Boards of Canada/The Campfire Headphase/05 Dayvan Cowboy.mp3'
p130
aS'/home/stoye/Media/other-hd-music/music/Box Five/Leave the Earth Behind'
p131
aS'/home/stoye/Media/other-hd-music/music/Brendan & the Extenuating Circumstances/Brendan & The Extenuating Circumstances'
p132
aS'/home/stoye/Media/other-hd-music/music/Brown Eyed Girls/Black Box'
p133
aS'/home/stoye/Media/other-hd-music/music/Brown Eyed Girls/My Style'
p134
aS'/home/stoye/Media/other-hd-music/music/Brown Eyed Girls/Sound-G'
p135
aS'/home/stoye/Media/other-hd-music/music/Brown Eyed Girls/With L.O.V.E, BROWN EYED GIRLS'
p136
aS'/home/stoye/Media/other-hd-music/music/Brown Eyed Girls/Your Story'
p137
aS'/home/stoye/Media/other-hd-music/music/Brown Eyed Girls/ddeonara miseugim'
p138
aS'/home/stoye/Media/other-hd-music/music/Brown Eyed Girls/resipi'
p139
aS'/home/stoye/Media/other-hd-music/music/Brunch/Non-Album/Imagine.mp3'
p140
aS'/home/stoye/Media/other-hd-music/music/Brunch/Non-Album/Imagine.mp3'
p141
aS'/home/stoye/Media/other-hd-music/music/Bu Dai Yin Tai/Non-Album/Battle Without Honor or Humanity.mp3'
p142
aS'/home/stoye/Media/other-hd-music/music/Bu Dai Yin Tai/Non-Album/Battle Without Honor or Humanity.mp3'
p143
aS'/home/stoye/Media/other-hd-music/music/Bucky Covington & Shooter Jennings/Drinking Side of Country'
p144
aS'/home/stoye/Media/other-hd-music/music/Bulldog Mansion/Non-Album'
p145
aS'/home/stoye/Media/other-hd-music/music/C418/Minecraft, Volume Alpha'
p146
aS'/home/stoye/Media/other-hd-music/music/Calvin Harris feat. Ayah Marar/Non-Album/Thinking About You.mp3'
p147
aS'/home/stoye/Media/other-hd-music/music/Calvin Harris feat. Ayah Marar/Non-Album/Thinking About You.mp3'
p148
aS'/home/stoye/Media/other-hd-music/music/Calvin Harris feat. Kelis/Bounce/01 Bounce (radio edit).mp3'
p149
aS'/home/stoye/Media/other-hd-music/music/Calvin Harris feat. Kelis/Bounce/01 Bounce (radio edit).mp3'
p150
aS'/home/stoye/Media/other-hd-music/music/Carbon Leaf/Non-Album/What About Everything_.mp3'
p151
aS'/home/stoye/Media/other-hd-music/music/Carbon Leaf/Non-Album/What About Everything_.mp3'
p152
aS'/home/stoye/Media/other-hd-music/music/Carrie Underwood/Some Hearts/07 Before He Cheats.mp3'
p153
aS'/home/stoye/Media/other-hd-music/music/Carrie Underwood/Some Hearts/07 Before He Cheats.mp3'
p154
aS"/home/stoye/Media/other-hd-music/music/Carter Burwell/Non-Album/Bella's Lullaby.mp3"
p155
aS"/home/stoye/Media/other-hd-music/music/Carter Burwell/Non-Album/Bella's Lullaby.mp3"
p156
aS'/home/stoye/Media/other-hd-music/music/Cat Power/Non-Album/Cherokee.mp3'
p157
aS'/home/stoye/Media/other-hd-music/music/Cat Power/Non-Album/I Found a Reason.mp3'
p158
aS'/home/stoye/Media/other-hd-music/music/Cat Power/Non-Album/I Found a Reason.mp3'
p159
aS'/home/stoye/Media/other-hd-music/music/Cazzette/Eject, Part I/02 Beam Me Up (Kill Mode) (radio edit).mp3'
p160
aS'/home/stoye/Media/other-hd-music/music/Cazzette/Eject, Part I/02 Beam Me Up (Kill Mode) (radio edit).mp3'
p161
aS'/home/stoye/Media/other-hd-music/music/CeeLo Green/Forget You'
p162
aS'/home/stoye/Media/other-hd-music/music/Celtic Woman/A Celtic Family Christmas'
p163
aS'/home/stoye/Media/other-hd-music/music/Charlene Kaye/Things I Will Need in the Past'
p164
aS'/home/stoye/Media/other-hd-music/music/Charles Aznavour/Qui _/01 For me, formidable.mp3'
p165
aS'/home/stoye/Media/other-hd-music/music/Charles Aznavour/Qui _/01 For me, formidable.mp3'
p166
aS'/home/stoye/Media/other-hd-music/music/Chris & Meredith Thompson/Clearwater'
p167
aS'/home/stoye/Media/other-hd-music/music/Christina Perri/Jar of Hearts'
p168
aS'/home/stoye/Media/other-hd-music/music/Chromeo/Business Casual'
p169
aS'/home/stoye/Media/other-hd-music/music/Chromeo/Chromeo_ The Remixes'
p170
aS'/home/stoye/Media/other-hd-music/music/Chromeo/DJ-Kicks_ Chromeo'
p171
aS"/home/stoye/Media/other-hd-music/music/Chromeo/Don't Turn the Lights On"
p172
aS'/home/stoye/Media/other-hd-music/music/Chromeo/Fancy Footwork'
p173
aS'/home/stoye/Media/other-hd-music/music/Chromeo/Needy Girl'
p174
aS'/home/stoye/Media/other-hd-music/music/Chromeo/Non-Album/Night by Night.mp3'
p175
aS'/home/stoye/Media/other-hd-music/music/Chromeo/Non-Album/Over Your Shoulder.mp3'
p176
aS'/home/stoye/Media/other-hd-music/music/Chromeo/Non-Album/Sexy Socialite (Boys Noize remix).mp3'
p177
aS'/home/stoye/Media/other-hd-music/music/Chromeo/Non-Album/Sexy Socialite.mp3'
p178
aS'/home/stoye/Media/other-hd-music/music/Chromeo/Non-Album/Sexy Socialite.mp3'
p179
aS"/home/stoye/Media/other-hd-music/music/Chromeo/She's in Control"
p180
aS'/home/stoye/Media/other-hd-music/music/Chuck Berry/Non-Album/No Particular Place to Go.mp3'
p181
aS'/home/stoye/Media/other-hd-music/music/Chuck Berry/Non-Album/No Particular Place to Go.mp3'
p182
aS'/home/stoye/Media/other-hd-music/music/Chumbawamba/Tubthumping'
p183
aS'/home/stoye/Media/other-hd-music/music/Cirque du Soleil/Corteo'
p184
aS'/home/stoye/Media/other-hd-music/music/Clarence _Frogman_ Henry/Non-Album/Aint Got No Home.mp3'
p185
aS'/home/stoye/Media/other-hd-music/music/Clarence _Frogman_ Henry/Non-Album/Aint Got No Home.mp3'
p186
aS'/home/stoye/Media/other-hd-music/music/Claudine Clark/Non-Album/Party Lights.mp3'
p187
aS'/home/stoye/Media/other-hd-music/music/Claudine Clark/Non-Album/Party Lights.mp3'
p188
aS'/home/stoye/Media/other-hd-music/music/Clint Mansell/Non-Album/A New Swan Queen.mp3'
p189
aS'/home/stoye/Media/other-hd-music/music/Clint Mansell/Non-Album/A Room of Her Own.mp3'
p190
aS'/home/stoye/Media/other-hd-music/music/Clint Mansell/Non-Album/A Swan Is Born.mp3'
p191
aS'/home/stoye/Media/other-hd-music/music/Clint Mansell/Non-Album/A Swan Song (For Nina).mp3'
p192
aS'/home/stoye/Media/other-hd-music/music/Clint Mansell/Non-Album/Cruel Mistress.mp3'
p193
aS"/home/stoye/Media/other-hd-music/music/Clint Mansell/Non-Album/It's My Time.mp3"
p194
aS'/home/stoye/Media/other-hd-music/music/Clint Mansell/Non-Album/Lose Yourself.mp3'
p195
aS'/home/stoye/Media/other-hd-music/music/Clint Mansell/Non-Album/Mother Me.mp3'
p196
aS'/home/stoye/Media/other-hd-music/music/Clint Mansell/Non-Album/Night of Terror.mp3'
p197
aS"/home/stoye/Media/other-hd-music/music/Clint Mansell/Non-Album/Nina's Dream.mp3"
p198
aS'/home/stoye/Media/other-hd-music/music/Clint Mansell/Non-Album/Opposites Attract.mp3'
p199
aS'/home/stoye/Media/other-hd-music/music/Clint Mansell/Non-Album/Perfection.mp3'
p200
aS'/home/stoye/Media/other-hd-music/music/Clint Mansell/Non-Album/Power, Seduction, Cries.mp3'
p201
aS'/home/stoye/Media/other-hd-music/music/Clint Mansell/Non-Album/Stumbled Beginnings.._.mp3'
p202
aS'/home/stoye/Media/other-hd-music/music/Clint Mansell/Non-Album/The Double.mp3'
p203
aS'/home/stoye/Media/other-hd-music/music/Clint Mansell/Non-Album/The New Season.mp3'
p204
aS'/home/stoye/Media/other-hd-music/music/Clint Mansell/Non-Album/The New Season.mp3'
p205
aS"/home/stoye/Media/other-hd-music/music/Coheed and Cambria/Good Apollo I'm Burning Star IV, Volume One_ From Fear Through the Eyes of Madness"
p206
aS'/home/stoye/Media/other-hd-music/music/Coheed and Cambria/In Keeping Secrets of Silent Earth_ 3'
p207
aS'/home/stoye/Media/other-hd-music/music/Coheed and Cambria/Live at the Starland Ballroom'
p208
aS'/home/stoye/Media/other-hd-music/music/Coheed and Cambria/The Second Stage Turbine Blade'
p209
aS'/home/stoye/Media/other-hd-music/music/Coldplay feat. Rihanna/Non-Album'
p210
aS'/home/stoye/Media/other-hd-music/music/Coldplay/Non-Album/Fix You.mp3'
p211
aS'/home/stoye/Media/other-hd-music/music/Coldplay/Non-Album/Fix You.mp3'
p212
aS'/home/stoye/Media/other-hd-music/music/Compilations/Chrono Symphonic_ A Cinematic Interpretation'
p213
aS'/home/stoye/Media/other-hd-music/music/Compilations/Monstercat 015_ Outlook'
p214
aS'/home/stoye/Media/other-hd-music/music/Compilations/Super Smash Bros. Melee Smashing... Live!'
p215
aS'/home/stoye/Media/other-hd-music/music/Counting Crows/Non-Album/Accidentally in Love.mp3'
p216
aS'/home/stoye/Media/other-hd-music/music/Counting Crows/Non-Album/Accidentally in Love.mp3'
p217
aS'/home/stoye/Media/other-hd-music/music/DJ Penetration/Non-Album/Princess of Payphone Blows The Whistle (ft. Flo Rida, Wiz Khalifa, Rihanna, Maroon 5 & Too $hort).mp3'
p218
aS'/home/stoye/Media/other-hd-music/music/DJ Penetration/Non-Album/Princess of Payphone Blows The Whistle (ft. Flo Rida, Wiz Khalifa, Rihanna, Maroon 5 & Too $hort).mp3'
p219
aS"/home/stoye/Media/other-hd-music/music/DJ Y alias JY/Non-Album/Lose Yourself To Dance (I Can't).mp3"
p220
aS"/home/stoye/Media/other-hd-music/music/DJ Y alias JY/Non-Album/Lose Yourself To Dance (I Can't).mp3"
p221
aS'/home/stoye/Media/other-hd-music/music/Da Gu Xing/Wander and the Colossus_ Roar of the Earth'
p222
aS'/home/stoye/Media/other-hd-music/music/Daft Punk/Discovery/04 Harder, Better, Faster, Stronger.mp3'
p223
aS'/home/stoye/Media/other-hd-music/music/Daft Punk/Discovery/04 Harder, Better, Faster, Stronger.mp3'
p224
aS'/home/stoye/Media/other-hd-music/music/Daft Punk/Grammys 2014'
p225
aS'/home/stoye/Media/other-hd-music/music/Daft Punk/Harder Better Faster Stronger (Alive 2007)'
p226
aS'/home/stoye/Media/other-hd-music/music/Daft Punk/Homework/09 Teachers.mp3'
p227
aS'/home/stoye/Media/other-hd-music/music/Daft Punk/Homework/09 Teachers.mp3'
p228
aS'/home/stoye/Media/other-hd-music/music/Daft Punk/Random Access Memories'
p229
aS'/home/stoye/Media/other-hd-music/music/Daniel Kim/Non-Album'
p230
aS'/home/stoye/Media/other-hd-music/music/Danny Elfman/Non-Album/The Piano Duet.mp3'
p231
aS'/home/stoye/Media/other-hd-music/music/Danny Elfman/Non-Album/The Piano Duet.mp3'
p232
aS'/home/stoye/Media/other-hd-music/music/Dario Marianelli/Non-Album/Dawn.mp3'
p233
aS'/home/stoye/Media/other-hd-music/music/Dario Marianelli/Non-Album/The Living Sculptures of Pemberly.mp3'
p234
aS'/home/stoye/Media/other-hd-music/music/Dario Marianelli/Non-Album/The Living Sculptures of Pemberly.mp3'
p235
aS'/home/stoye/Media/other-hd-music/music/Darude/Sandstorm'
p236
aS'/home/stoye/Media/other-hd-music/music/Daughtry/Non-Album/Home.mp3'
p237
aS'/home/stoye/Media/other-hd-music/music/Daughtry/Non-Album/Home.mp3'
p238
aS'/home/stoye/Media/other-hd-music/music/David Guetta & Afrojack/Non-Album/Lunar.mp3'
p239
aS'/home/stoye/Media/other-hd-music/music/David Guetta & Afrojack/Non-Album/Lunar.mp3'
p240
aS'/home/stoye/Media/other-hd-music/music/David Guetta feat. Sia/Non-Album/Titanium.mp3'
p241
aS'/home/stoye/Media/other-hd-music/music/David Guetta feat. Sia/Non-Album/Titanium.mp3'
p242
aS'/home/stoye/Media/other-hd-music/music/David Guetta/Non-Album/Toy Story.mp3'
p243
aS'/home/stoye/Media/other-hd-music/music/David Guetta/Non-Album/Toy Story.mp3'
p244
aS'/home/stoye/Media/other-hd-music/music/Death Cab for Cutie/Non-Album/I Will Follow You Into the Dark.mp3'
p245
aS'/home/stoye/Media/other-hd-music/music/Death Cab for Cutie/Non-Album/I Will Follow You Into the Dark.mp3'
p246
aS'/home/stoye/Media/other-hd-music/music/Death Cab for Cutie/Plans/08 Crooked Teeth.mp3'
p247
aS'/home/stoye/Media/other-hd-music/music/Death Cab for Cutie/Plans/08 Crooked Teeth.mp3'
p248
aS"/home/stoye/Media/other-hd-music/music/Deep Blue Something/Home/02 Breakfast at Tiffany's.mp3"
p249
aS"/home/stoye/Media/other-hd-music/music/Deep Blue Something/Home/02 Breakfast at Tiffany's.mp3"
p250
aS"/home/stoye/Media/other-hd-music/music/Dell/A Day's Work"
p251
aS'/home/stoye/Media/other-hd-music/music/Depeche Mode/A Question of Time'
p252
aS'/home/stoye/Media/other-hd-music/music/Depeche Mode/Exciter'
p253
aS'/home/stoye/Media/other-hd-music/music/Depeche Mode/Music for the Masses'
p254
aS'/home/stoye/Media/other-hd-music/music/Depeche Mode/Non-Album/Enjoy the Silence (M.L. Gore vocal demo version).mp3'
p255
aS'/home/stoye/Media/other-hd-music/music/Depeche Mode/Non-Album/Enjoy the Silence (M.L. Gore vocal demo version).mp3'
p256
aS'/home/stoye/Media/other-hd-music/music/Depeche Mode/Playing the Angel'
p257
aS'/home/stoye/Media/other-hd-music/music/Depeche Mode/Songs of Faith and Devotion'
p258
aS"/home/stoye/Media/other-hd-music/music/Depeche Mode/Speak & Spell/06 What's Your Name_.mp3"
p259
aS"/home/stoye/Media/other-hd-music/music/Depeche Mode/Speak & Spell/06 What's Your Name_.mp3"
p260
aS'/home/stoye/Media/other-hd-music/music/Depeche Mode/The Singles 81-85'
p261
aS'/home/stoye/Media/other-hd-music/music/Depeche Mode/The Singles 86_98'
p262
aS'/home/stoye/Media/other-hd-music/music/Depeche Mode/The Singles 86_98 133'
p263
aS'/home/stoye/Media/other-hd-music/music/Depeche Mode/The Singles 86_98 134'
p264
aS'/home/stoye/Media/other-hd-music/music/Depeche Mode/Ultra'
p265
aS'/home/stoye/Media/other-hd-music/music/Dessa/A Badly Broken Code'
p266
aS'/home/stoye/Media/other-hd-music/music/Dessa/Castor, the Twin'
p267
aS'/home/stoye/Media/other-hd-music/music/Dessa/False Hopes'
p268
aS'/home/stoye/Media/other-hd-music/music/Dessa/Parts of Speech'
p269
aS'/home/stoye/Media/other-hd-music/music/Dionysus and Poppingmelons/Non-Album/Holy Paradise (Au5 x Jay Z x Nero x Coldplay x Seven Lions).mp3'
p270
aS'/home/stoye/Media/other-hd-music/music/Dionysus and Poppingmelons/Non-Album/Holy Paradise (Au5 x Jay Z x Nero x Coldplay x Seven Lions).mp3'
p271
aS"/home/stoye/Media/other-hd-music/music/Doctor P & Flux Pavilion/Circus One/05 I Can't Stop.mp3"
p272
aS"/home/stoye/Media/other-hd-music/music/Doctor P & Flux Pavilion/Circus One/05 I Can't Stop.mp3"
p273
aS'/home/stoye/Media/other-hd-music/music/Don McLean/American Pie/10 Babylon.mp3'
p274
aS'/home/stoye/Media/other-hd-music/music/Don McLean/American Pie/10 Babylon.mp3'
p275
aS'/home/stoye/Media/other-hd-music/music/Don McLean/Rearview Mirror/16 American Pie.mp3'
p276
aS'/home/stoye/Media/other-hd-music/music/Don McLean/Rearview Mirror/16 American Pie.mp3'
p277
aS'/home/stoye/Media/other-hd-music/music/Doomtree/False Hopes/13 If & When.mp3'
p278
aS'/home/stoye/Media/other-hd-music/music/Doomtree/False Hopes/13 If & When.mp3'
p279
aS'/home/stoye/Media/other-hd-music/music/Drake/Thank Me Later/13 Find Your Love.mp3'
p280
aS'/home/stoye/Media/other-hd-music/music/Drake/Thank Me Later/13 Find Your Love.mp3'
p281
aS"/home/stoye/Media/other-hd-music/music/Dropkick Murphys/The Warrior's Code/11 I'm Shipping Up to Boston.mp3"
p282
aS"/home/stoye/Media/other-hd-music/music/Dropkick Murphys/The Warrior's Code/11 I'm Shipping Up to Boston.mp3"
p283
aS'/home/stoye/Media/other-hd-music/music/Edguy/King of Fools/02 New Age Messiah.mp3'
p284
aS'/home/stoye/Media/other-hd-music/music/Edguy/King of Fools/02 New Age Messiah.mp3'
p285
aS'/home/stoye/Media/other-hd-music/music/Edwin Starr/Non-Album/War.mp3'
p286
aS'/home/stoye/Media/other-hd-music/music/Edwin Starr/Non-Album/War.mp3'
p287
aS'/home/stoye/Media/other-hd-music/music/Eliza Gilkyson/Paradise Hotel/09 Requiem.mp3'
p288
aS'/home/stoye/Media/other-hd-music/music/Eliza Gilkyson/Paradise Hotel/09 Requiem.mp3'
p289
aS'/home/stoye/Media/other-hd-music/music/Ellie Goulding/Halcyon/03 Anything Could Happen.mp3'
p290
aS'/home/stoye/Media/other-hd-music/music/Ellie Goulding/Halcyon/03 Anything Could Happen.mp3'
p291
aS'/home/stoye/Media/other-hd-music/music/Ellie Goulding/Lights/01 Lights (single version).mp3'
p292
aS'/home/stoye/Media/other-hd-music/music/Ellie Goulding/Lights/01 Lights (single version).mp3'
p293
aS'/home/stoye/Media/other-hd-music/music/Ellie Goulding/Lights_ The Remixes/06 Lights (Bassnectar remix).mp3'
p294
aS'/home/stoye/Media/other-hd-music/music/Ellie Goulding/Lights_ The Remixes/06 Lights (Bassnectar remix).mp3'
p295
aS'/home/stoye/Media/other-hd-music/music/Eminem feat. Rihanna/Love the Way You Lie/01 Love the Way You Lie (album version).mp3'
p296
aS'/home/stoye/Media/other-hd-music/music/Eminem feat. Rihanna/Love the Way You Lie/01 Love the Way You Lie (album version).mp3'
p297
aS'/home/stoye/Media/other-hd-music/music/Eminem/Curtain Call_ The Hits/03 Stan.mp3'
p298
aS'/home/stoye/Media/other-hd-music/music/Eminem/Curtain Call_ The Hits/03 Stan.mp3'
p299
aS'/home/stoye/Media/other-hd-music/music/Eminem/Non-Album/The Real Slim Shady.mp3'
p300
aS'/home/stoye/Media/other-hd-music/music/Eminem/Non-Album/The Real Slim Shady.mp3'
p301
aS'/home/stoye/Media/other-hd-music/music/Eric Whitacre/Eric Whitacre Conducts_ Live from Tokyo! (feat. Tokyo Youth Orchestra)/01 October.mp3'
p302
aS'/home/stoye/Media/other-hd-music/music/Eric Whitacre/Eric Whitacre Conducts_ Live from Tokyo! (feat. Tokyo Youth Orchestra)/01 October.mp3'
p303
aS'/home/stoye/Media/other-hd-music/music/Eric Whitacre/Light and Gold'
p304
aS'/home/stoye/Media/other-hd-music/music/Eurythmics/Non-Album/Sweet Dreams.mp3'
p305
aS'/home/stoye/Media/other-hd-music/music/Eurythmics/Non-Album/Sweet Dreams.mp3'
p306
aS'/home/stoye/Media/other-hd-music/music/Evanescence/Non-Album/Bring Me to Life.mp3'
p307
aS'/home/stoye/Media/other-hd-music/music/Evanescence/Non-Album/My Immortal.mp3'
p308
aS'/home/stoye/Media/other-hd-music/music/Evanescence/Non-Album/My Immortal.mp3'
p309
aS'/home/stoye/Media/other-hd-music/music/Far East Movement/Free Wired/02 Like a G6.mp3'
p310
aS'/home/stoye/Media/other-hd-music/music/Far East Movement/Free Wired/02 Like a G6.mp3'
p311
aS'/home/stoye/Media/other-hd-music/music/Fergie/Non-Album'
p312
aS"/home/stoye/Media/other-hd-music/music/Five O'Clock Shadow/Wonders of the World"
p313
aS'/home/stoye/Media/other-hd-music/music/Five for Fighting/Non-Album/100 Years.mp3'
p314
aS'/home/stoye/Media/other-hd-music/music/Five for Fighting/Non-Album/100 Years.mp3'
p315
aS'/home/stoye/Media/other-hd-music/music/Flo Rida/Non-Album/Whistle.mp3'
p316
aS'/home/stoye/Media/other-hd-music/music/Flo Rida/Non-Album/Whistle.mp3'
p317
aS'/home/stoye/Media/other-hd-music/music/Flogging Molly/Non-Album/Drunken Lullabies.mp3'
p318
aS'/home/stoye/Media/other-hd-music/music/Flogging Molly/Non-Album/Drunken Lullabies.mp3'
p319
aS'/home/stoye/Media/other-hd-music/music/Florence + the Machine/Lungs/01 Dog Days Are Over.mp3'
p320
aS'/home/stoye/Media/other-hd-music/music/Florence + the Machine/Lungs/01 Dog Days Are Over.mp3'
p321
aS'/home/stoye/Media/other-hd-music/music/Frank Sinatra/Non-Album/Somewhere Along the Way.mp3'
p322
aS'/home/stoye/Media/other-hd-music/music/Frank Sinatra/Non-Album/Somewhere Along the Way.mp3'
p323
aS'/home/stoye/Media/other-hd-music/music/Freddy Cannon/Non-Album/Palisades Park.mp3'
p324
aS'/home/stoye/Media/other-hd-music/music/Freddy Cannon/Non-Album/Palisades Park.mp3'
p325
aS'/home/stoye/Media/other-hd-music/music/Frost_/Milliontown'
p326
aS'/home/stoye/Media/other-hd-music/music/Gary Jules/Non-Album/Mad World.mp3'
p327
aS'/home/stoye/Media/other-hd-music/music/Gary Jules/Non-Album/Mad World.mp3'
p328
aS'/home/stoye/Media/other-hd-music/music/Gene Chandler/Non-Album/Duke of Earl.mp3'
p329
aS'/home/stoye/Media/other-hd-music/music/Gene Chandler/Non-Album/Duke of Earl.mp3'
p330
aS'/home/stoye/Media/other-hd-music/music/Genghis Khan/Non-Album/Moscow.mp3'
p331
aS'/home/stoye/Media/other-hd-music/music/Genghis Khan/Non-Album/Moscow.mp3'
p332
aS'/home/stoye/Media/other-hd-music/music/George Winston/Linus & Lucy_ The Music of Vince Guaraldi'
p333
aS'/home/stoye/Media/other-hd-music/music/Gnarls Barkley/St. Elsewhere/02 Crazy.mp3'
p334
aS'/home/stoye/Media/other-hd-music/music/Gnarls Barkley/St. Elsewhere/02 Crazy.mp3'
p335
aS'/home/stoye/Media/other-hd-music/music/Godsmack/Awake/03 Greed.mp3'
p336
aS'/home/stoye/Media/other-hd-music/music/Godsmack/Awake/03 Greed.mp3'
p337
aS'/home/stoye/Media/other-hd-music/music/Godsmack/Faceless/01 Straight Out of Line.mp3'
p338
aS'/home/stoye/Media/other-hd-music/music/Godsmack/Faceless/12 Serenity.mp3'
p339
aS'/home/stoye/Media/other-hd-music/music/Godsmack/Faceless/12 Serenity.mp3'
p340
aS'/home/stoye/Media/other-hd-music/music/Gomez/How We Operate'
p341
aS'/home/stoye/Media/other-hd-music/music/Goo Goo Dolls/Non-Album/Iris.mp3'
p342
aS'/home/stoye/Media/other-hd-music/music/Goo Goo Dolls/Non-Album/Iris.mp3'
p343
aS"/home/stoye/Media/other-hd-music/music/Gordon Goodwin's Big Phat Band/Act Your Age"
p344
aS"/home/stoye/Media/other-hd-music/music/Gordon Goodwin's Big Phat Band/Swingin' for the Fences"
p345
aS"/home/stoye/Media/other-hd-music/music/Gordon Goodwin's Big Phat Band/The Phat Pack"
p346
aS'/home/stoye/Media/other-hd-music/music/Gorillaz feat. Daley/Non-Album/Doncamatic.mp3'
p347
aS'/home/stoye/Media/other-hd-music/music/Gorillaz feat. Daley/Non-Album/Doncamatic.mp3'
p348
aS'/home/stoye/Media/other-hd-music/music/Gorillaz/Demon Days/06 Feel Good Inc_.mp3'
p349
aS"/home/stoye/Media/other-hd-music/music/Gorillaz/Demon Days/13 Fire Coming Out of the Monkey's Head.mp3"
p350
aS"/home/stoye/Media/other-hd-music/music/Gorillaz/Demon Days/13 Fire Coming Out of the Monkey's Head.mp3"
p351
aS'/home/stoye/Media/other-hd-music/music/Gorillaz/Non-Album/Kids With Guns.mp3'
p352
aS'/home/stoye/Media/other-hd-music/music/Gorillaz/Non-Album/Kids With Guns.mp3'
p353
aS'/home/stoye/Media/other-hd-music/music/Gorillaz/Plastic Beach/10 On Melancholy Hill.mp3'
p354
aS'/home/stoye/Media/other-hd-music/music/Gorillaz/Plastic Beach/10 On Melancholy Hill.mp3'
p355
aS'/home/stoye/Media/other-hd-music/music/Gotye/Making Mirrors/03 Somebody That I Used to Know.mp3'
p356
aS'/home/stoye/Media/other-hd-music/music/Gotye/Making Mirrors/03 Somebody That I Used to Know.mp3'
p357
aS'/home/stoye/Media/other-hd-music/music/Grand Funk Railroad/Survival'
p358
aS'/home/stoye/Media/other-hd-music/music/Grant Kirkhope/Banjo-Kazooie'
p359
aS'/home/stoye/Media/other-hd-music/music/Green Day/1,039_Smoothed Out Slappy Hours'
p360
aS'/home/stoye/Media/other-hd-music/music/Green Day/21st Century Breakdown/16 21 Guns.mp3'
p361
aS'/home/stoye/Media/other-hd-music/music/Green Day/21st Century Breakdown/16 21 Guns.mp3'
p362
aS'/home/stoye/Media/other-hd-music/music/Green Day/American Idiot'
p363
aS'/home/stoye/Media/other-hd-music/music/Green Day/Dookie'
p364
aS'/home/stoye/Media/other-hd-music/music/Green Day/Insomniac/10 Brain Stew.mp3'
p365
aS'/home/stoye/Media/other-hd-music/music/Green Day/Insomniac/11 Jaded.mp3'
p366
aS'/home/stoye/Media/other-hd-music/music/Green Day/Insomniac/11 Jaded.mp3'
p367
aS'/home/stoye/Media/other-hd-music/music/Green Day/International Superhits!'
p368
aS'/home/stoye/Media/other-hd-music/music/Green Day/Kerplunk!'
p369
aS'/home/stoye/Media/other-hd-music/music/Green Day/Nimrod/08 Platypus (I Hate You).mp3'
p370
aS'/home/stoye/Media/other-hd-music/music/Green Day/Nimrod/08 Platypus (I Hate You).mp3'
p371
aS'/home/stoye/Media/other-hd-music/music/Green Day/Shenanigans/07 I Want to Be on T.V_.mp3'
p372
aS"/home/stoye/Media/other-hd-music/music/Green Day/Shenanigans/14 Ha Ha You're Dead.mp3"
p373
aS"/home/stoye/Media/other-hd-music/music/Green Day/Shenanigans/14 Ha Ha You're Dead.mp3"
p374
aS'/home/stoye/Media/other-hd-music/music/Groovelily/Live - Just the Three of Us'
p375
aS'/home/stoye/Media/other-hd-music/music/Guang Tian Kang Dian/Chrono Trigger_ Original Sound Version'
p376
aS'/home/stoye/Media/other-hd-music/music/Gustav Holst; Berliner Philharmoniker, Sir Colin Davis/The Planets'
p377
aS'/home/stoye/Media/other-hd-music/music/Guster/Keep It Together/08 Keep It Together.mp3'
p378
aS'/home/stoye/Media/other-hd-music/music/Guster/Keep It Together/08 Keep It Together.mp3'
p379
aS'/home/stoye/Media/other-hd-music/music/Guster/Non-Album/Diane.mp3'
p380
aS'/home/stoye/Media/other-hd-music/music/Guster/Non-Album/Happier.mp3'
p381
aS'/home/stoye/Media/other-hd-music/music/Guster/Non-Album/Red Oyster Cult.mp3'
p382
aS'/home/stoye/Media/other-hd-music/music/Guster/Non-Album/Two at a Time.mp3'
p383
aS'/home/stoye/Media/other-hd-music/music/Guster/Non-Album/Two at a Time.mp3'
p384
aS"/home/stoye/Media/other-hd-music/music/Hans Zimmer/Pirates of the Caribbean_ Dead Man's Chest/12 He's a Pirate (Tiesto remix).mp3"
p385
aS"/home/stoye/Media/other-hd-music/music/Hans Zimmer/Pirates of the Caribbean_ Dead Man's Chest/12 He's a Pirate (Tiesto remix).mp3"
p386
aS"/home/stoye/Media/other-hd-music/music/Hollywood Undead/American Tragedy/03 Comin' in Hot.mp3"
p387
aS"/home/stoye/Media/other-hd-music/music/Hollywood Undead/American Tragedy/03 Comin' in Hot.mp3"
p388
aS'/home/stoye/Media/other-hd-music/music/Howie Day/Non-Album/Collide (acoustic).mp3'
p389
aS'/home/stoye/Media/other-hd-music/music/Howie Day/Non-Album/Collide (acoustic).mp3'
p390
aS'/home/stoye/Media/other-hd-music/music/Imogen Heap/Speak for Yourself/05 Hide and Seek.mp3'
p391
aS'/home/stoye/Media/other-hd-music/music/Imogen Heap/Speak for Yourself/05 Hide and Seek.mp3'
p392
aS'/home/stoye/Media/other-hd-music/music/Indigo Girls/Non-Album/Closer to Fine.mp3'
p393
aS'/home/stoye/Media/other-hd-music/music/Indigo Girls/Non-Album/Closer to Fine.mp3'
p394
aS'/home/stoye/Media/other-hd-music/music/Iron Maiden/Non-Album/Lord of the Flies.mp3'
p395
aS'/home/stoye/Media/other-hd-music/music/Iron Maiden/Non-Album/Lord of the Flies.mp3'
p396
aS'/home/stoye/Media/other-hd-music/music/Isosine/Mashup Manifesto III'
p397
aS'/home/stoye/Media/other-hd-music/music/JAY Z, Kanye West feat. Frank Ocean & The-Dream/Non-Album/No Church in the Wild.mp3'
p398
aS'/home/stoye/Media/other-hd-music/music/JAY Z, Kanye West feat. Frank Ocean & The-Dream/Non-Album/No Church in the Wild.mp3'
p399
aS'/home/stoye/Media/other-hd-music/music/Jack Johnson/In Between Dreams/03 Banana Pancakes.mp3'
p400
aS'/home/stoye/Media/other-hd-music/music/Jack Johnson/In Between Dreams/03 Banana Pancakes.mp3'
p401
aS'/home/stoye/Media/other-hd-music/music/James Horner/Avatar_ Music From the Motion Picture'
p402
aS'/home/stoye/Media/other-hd-music/music/James Newton Howard/King Kong'
p403
aS'/home/stoye/Media/other-hd-music/music/James Newton Howard/Non-Album'
p404
aS'/home/stoye/Media/other-hd-music/music/James Newton Howard/Non-Album/Beautiful.mp3'
p405
aS'/home/stoye/Media/other-hd-music/music/James Newton Howard/Non-Album/Beautiful.mp3'
p406
aS'/home/stoye/Media/other-hd-music/music/James Newton Howard/Non-Album/Beautiful.mp3'
p407
aS'/home/stoye/Media/other-hd-music/music/James Newton Howard/Non-Album/Beautiful.mp3'
p408
aS'/home/stoye/Media/other-hd-music/music/James Newton Howard/Non-Album/Beautiful.mp3'
p409
aS'/home/stoye/Media/other-hd-music/music/James Newton Howard/Non-Album/Beautiful.mp3'
p410
aS'/home/stoye/Media/other-hd-music/music/Janne Da Arc/ARCADIA'
p411
aS'/home/stoye/Media/other-hd-music/music/Janne Da Arc/JOKER'
p412
aS'/home/stoye/Media/other-hd-music/music/Jason Derulo/In My Head'
p413
aS"/home/stoye/Media/other-hd-music/music/Jason Mraz/We Sing. We Dance. We Steal Things_/02 I'm Yours.mp3"
p414
aS'/home/stoye/Media/other-hd-music/music/Jason Mraz/We Sing. We Dance. We Steal Things_/03 Lucky.mp3'
p415
aS'/home/stoye/Media/other-hd-music/music/Jason Mraz/We Sing. We Dance. We Steal Things_/03 Lucky.mp3'
p416
aS"/home/stoye/Media/other-hd-music/music/Javier Navarrete/Pan's Labyrinth/01 Long, Long Time Ago.mp3"
p417
aS"/home/stoye/Media/other-hd-music/music/Javier Navarrete/Pan's Labyrinth/21 Pan's Labyrinth Lullaby.mp3"
p418
aS"/home/stoye/Media/other-hd-music/music/Javier Navarrete/Pan's Labyrinth/21 Pan's Labyrinth Lullaby.mp3"
p419
aS'/home/stoye/Media/other-hd-music/music/Jeff Foxworthy/Games Rednecks Play'
p420
aS'/home/stoye/Media/other-hd-music/music/Jeff Foxworthy/Totally Committed'
p421
aS'/home/stoye/Media/other-hd-music/music/Jeff Foxworthy/You Might Be a Redneck If.._'
p422
aS'/home/stoye/Media/other-hd-music/music/Jeremy Soule/The Elder Scrolls V_ Skyrim Original Game Soundtrack'
p423
aS'/home/stoye/Media/other-hd-music/music/Jet/Are You Gonna Be My Girl'
p424
aS'/home/stoye/Media/other-hd-music/music/Jillette Johnson/Whiskey & Frosting'
p425
aS"/home/stoye/Media/other-hd-music/music/Jiu Shi Rang/Howl's Moving Castle"
p426
aS'/home/stoye/Media/other-hd-music/music/Jiu Shi Rang/Princess Mononoke'
p427
aS'/home/stoye/Media/other-hd-music/music/John Lennon & Yoko Ono/Double Fantasy Stripped Down/21 Beautiful Boy (Darling Boy).mp3'
p428
aS'/home/stoye/Media/other-hd-music/music/John Lennon & Yoko Ono/Double Fantasy Stripped Down/21 Beautiful Boy (Darling Boy).mp3'
p429
aS'/home/stoye/Media/other-hd-music/music/John Lennon/Imagine'
p430
aS'/home/stoye/Media/other-hd-music/music/John Mayer/Non-Album/Your Body Is a Wonderland.mp3'
p431
aS'/home/stoye/Media/other-hd-music/music/John Mayer/Non-Album/Your Body Is a Wonderland.mp3'
p432
aS'/home/stoye/Media/other-hd-music/music/John Williams, Boston Pops Orchestra/Summon the Heroes/12 The Olympic Spirit.mp3'
p433
aS'/home/stoye/Media/other-hd-music/music/John Williams, Boston Pops Orchestra/Summon the Heroes/12 The Olympic Spirit.mp3'
p434
aS"/home/stoye/Media/other-hd-music/music/John Williams/Harry Potter and the Sorcerer's Stone"
p435
aS'/home/stoye/Media/other-hd-music/music/John Williams/Non-Album/Schindlers List_ Theme.mp3'
p436
aS'/home/stoye/Media/other-hd-music/music/John Williams/Non-Album/Superman_ Main Theme.mp3'
p437
aS'/home/stoye/Media/other-hd-music/music/John Williams/Non-Album/Superman_ Main Theme.mp3'
p438
aS'/home/stoye/Media/other-hd-music/music/John Williams/Star Wars, Episode III_ Revenge of the Sith'
p439
aS'/home/stoye/Media/other-hd-music/music/Johnny Horton/Non-Album/Battle of New Orleans.mp3'
p440
aS'/home/stoye/Media/other-hd-music/music/Johnny Horton/Non-Album/Battle of New Orleans.mp3'
p441
aS'/home/stoye/Media/other-hd-music/music/Joseph Haydn/Non-Album/Symphony No. 100, _Military__ I. Adagio - Allegro.mp3'
p442
aS'/home/stoye/Media/other-hd-music/music/Joseph Haydn/Non-Album/Symphony No. 100, _Military__ II. Allegretto.mp3'
p443
aS'/home/stoye/Media/other-hd-music/music/Joseph Haydn/Non-Album/Symphony No. 100, _Military__ III. Menuet_ Moderato.mp3'
p444
aS'/home/stoye/Media/other-hd-music/music/Joseph Haydn/Non-Album/Symphony No. 100, _Military__ IV. Finale_ Presto.mp3'
p445
aS'/home/stoye/Media/other-hd-music/music/Joseph Haydn/Non-Album/Symphony No. 100, _Military__ IV. Finale_ Presto.mp3'
p446
aS"/home/stoye/Media/other-hd-music/music/Journey/Greatest Hits/02 Don't Stop Believin'.mp3"
p447
aS"/home/stoye/Media/other-hd-music/music/Journey/Greatest Hits/02 Don't Stop Believin'.mp3"
p448
aS'/home/stoye/Media/other-hd-music/music/Journey/Non-Album/Open Arms.mp3'
p449
aS'/home/stoye/Media/other-hd-music/music/Journey/Non-Album/Open Arms.mp3'
p450
aS'/home/stoye/Media/other-hd-music/music/Ju Tian Yu Shu/Secret of Mana'
p451
aS'/home/stoye/Media/other-hd-music/music/Juanes/Mi sangre/04 La camisa negra.mp3'
p452
aS'/home/stoye/Media/other-hd-music/music/Juanes/Mi sangre/04 La camisa negra.mp3'
p453
aS'/home/stoye/Media/other-hd-music/music/Justice/Civilization'
p454
aS'/home/stoye/Media/other-hd-music/music/Justin Timberlake Feat. Ciara/Non-Album'
p455
aS'/home/stoye/Media/other-hd-music/music/Justin Timberlake/Justified/06 Rock Your Body.mp3'
p456
aS'/home/stoye/Media/other-hd-music/music/Justin Timberlake/Justified/06 Rock Your Body.mp3'
p457
aS'/home/stoye/Media/other-hd-music/music/KT Tunstall/Suddenly I See 236'
p458
aS'/home/stoye/Media/other-hd-music/music/KT Tunstall/Suddenly I See 236/01 Suddenly I See (single version).mp3'
p459
aS'/home/stoye/Media/other-hd-music/music/KT Tunstall/Suddenly I See 236/01 Suddenly I See (single version).mp3'
p460
aS'/home/stoye/Media/other-hd-music/music/KT Tunstall/Suddenly I See 236/01 Suddenly I See (single version).mp3'
p461
aS'/home/stoye/Media/other-hd-music/music/KT Tunstall/Suddenly I See 236/01 Suddenly I See (single version).mp3'
p462
aS'/home/stoye/Media/other-hd-music/music/KT Tunstall/Suddenly I See 236/01 Suddenly I See (single version).mp3'
p463
aS'/home/stoye/Media/other-hd-music/music/KT Tunstall/Suddenly I See 236/01 Suddenly I See (single version).mp3'
p464
aS'/home/stoye/Media/other-hd-music/music/KT Tunstall/Suddenly I See/01 Suddenly I See (single version).mp3'
p465
aS'/home/stoye/Media/other-hd-music/music/KT Tunstall/Suddenly I See/01 Suddenly I See (single version).mp3'
p466
aS'/home/stoye/Media/other-hd-music/music/Kamelot/Dominion'
p467
aS'/home/stoye/Media/other-hd-music/music/Kamelot/Epica'
p468
aS'/home/stoye/Media/other-hd-music/music/Kamelot/Eternity'
p469
aS'/home/stoye/Media/other-hd-music/music/Kamelot/Karma'
p470
aS'/home/stoye/Media/other-hd-music/music/Kamelot/Poetry for the Poisoned'
p471
aS'/home/stoye/Media/other-hd-music/music/Kamelot/Siege Perilous'
p472
aS'/home/stoye/Media/other-hd-music/music/Kamelot/The Black Halo'
p473
aS'/home/stoye/Media/other-hd-music/music/Kamelot/The Fourth Legacy'
p474
aS'/home/stoye/Media/other-hd-music/music/Kanye West/Non-Album/Stronger.mp3'
p475
aS'/home/stoye/Media/other-hd-music/music/Kanye West/Non-Album/Stronger.mp3'
p476
aS'/home/stoye/Media/other-hd-music/music/Kanye West/Power'
p477
aS'/home/stoye/Media/other-hd-music/music/Katy Perry/California Gurls'
p478
aS'/home/stoye/Media/other-hd-music/music/Katy Perry/I Kissed a Girl'
p479
aS'/home/stoye/Media/other-hd-music/music/Ke$ha/Animal/01 Your Love Is My Drug.mp3'
p480
aS'/home/stoye/Media/other-hd-music/music/Ke$ha/Animal/02 TiK ToK.mp3'
p481
aS'/home/stoye/Media/other-hd-music/music/Ke$ha/Animal/03 Take It Off.mp3'
p482
aS'/home/stoye/Media/other-hd-music/music/Ke$ha/Animal/03 Take It Off.mp3'
p483
aS'/home/stoye/Media/other-hd-music/music/Keane/Non-Album/Bend and Break.mp3'
p484
aS"/home/stoye/Media/other-hd-music/music/Keane/Non-Album/Everybody's Changing.mp3"
p485
aS'/home/stoye/Media/other-hd-music/music/Keane/Non-Album/Snowed Under.mp3'
p486
aS'/home/stoye/Media/other-hd-music/music/Keane/Non-Album/Snowed Under.mp3'
p487
aS'/home/stoye/Media/other-hd-music/music/Keane/Somewhere Only We Know/01 Somewhere Only We Know.mp3'
p488
aS'/home/stoye/Media/other-hd-music/music/Keane/Somewhere Only We Know/01 Somewhere Only We Know.mp3'
p489
aS'/home/stoye/Media/other-hd-music/music/Keane/Under the Iron Sea'
p490
aS'/home/stoye/Media/other-hd-music/music/Kelly Clarkson/Non-Album/Addicted.mp3'
p491
aS'/home/stoye/Media/other-hd-music/music/Kelly Clarkson/Non-Album/Addicted.mp3'
p492
aS'/home/stoye/Media/other-hd-music/music/Klaus Badelt/Pirates of the Caribbean_ The Curse of the Black Pearl'
p493
aS'/home/stoye/Media/other-hd-music/music/LMFAO/Party Rock Anthem/01 Party Rock Anthem.mp3'
p494
aS'/home/stoye/Media/other-hd-music/music/LMFAO/Party Rock Anthem/01 Party Rock Anthem.mp3'
p495
aS'/home/stoye/Media/other-hd-music/music/La Roux/Bulletproof/01 Bulletproof.mp3'
p496
aS'/home/stoye/Media/other-hd-music/music/La Roux/Bulletproof/01 Bulletproof.mp3'
p497
aS'/home/stoye/Media/other-hd-music/music/Lady Antebellum/Need You Now'
p498
aS'/home/stoye/Media/other-hd-music/music/Lady Gaga feat. Beyonce/Telephone'
p499
aS'/home/stoye/Media/other-hd-music/music/Lady Gaga/Non-Album/Applause.mp3'
p500
aS'/home/stoye/Media/other-hd-music/music/Lady Gaga/Non-Album/Applause.mp3'
p501
aS'/home/stoye/Media/other-hd-music/music/Lemon Demon/Clown Circus/02 Lemon Demon.mp3'
p502
aS"/home/stoye/Media/other-hd-music/music/Lemon Demon/Clown Circus/04 Don't Be Like the Sun.mp3"
p503
aS'/home/stoye/Media/other-hd-music/music/Lemon Demon/Clown Circus/13 Hyakugojyuuichi 2003.mp3'
p504
aS'/home/stoye/Media/other-hd-music/music/Lemon Demon/Clown Circus/13 Hyakugojyuuichi 2003.mp3'
p505
aS'/home/stoye/Media/other-hd-music/music/Lemon Demon/Damn Skippy/01 Dead Sea Monkeys.mp3'
p506
aS'/home/stoye/Media/other-hd-music/music/Lemon Demon/Damn Skippy/03 Pumpkin Pie.mp3'
p507
aS'/home/stoye/Media/other-hd-music/music/Lemon Demon/Damn Skippy/08 Kitten Is Angry.mp3'
p508
aS'/home/stoye/Media/other-hd-music/music/Lemon Demon/Damn Skippy/13 Ode to Crayola.mp3'
p509
aS'/home/stoye/Media/other-hd-music/music/Lemon Demon/Damn Skippy/17 Word Disassociation.mp3'
p510
aS'/home/stoye/Media/other-hd-music/music/Lemon Demon/Damn Skippy/17 Word Disassociation.mp3'
p511
aS'/home/stoye/Media/other-hd-music/music/Lemon Demon/Dinosaurchestra'
p512
aS'/home/stoye/Media/other-hd-music/music/Lemon Demon/Hip to the Javabean/02 Sunbeam Light Show Flower Seed.mp3'
p513
aS'/home/stoye/Media/other-hd-music/music/Lemon Demon/Hip to the Javabean/06 Telekinesis.mp3'
p514
aS'/home/stoye/Media/other-hd-music/music/Lemon Demon/Hip to the Javabean/12 Consumer Whore.mp3'
p515
aS"/home/stoye/Media/other-hd-music/music/Lemon Demon/Hip to the Javabean/14 I've Got Some Falling to Do.mp3"
p516
aS"/home/stoye/Media/other-hd-music/music/Lemon Demon/Hip to the Javabean/14 I've Got Some Falling to Do.mp3"
p517
aS'/home/stoye/Media/other-hd-music/music/Lemon Demon/Live From the Haunted Candle Shop/02 The Saga of You, Confused Destroyer of Planets.mp3'
p518
aS'/home/stoye/Media/other-hd-music/music/Lemon Demon/Live From the Haunted Candle Shop/10 Dance Like an Idiot.mp3'
p519
aS'/home/stoye/Media/other-hd-music/music/Lemon Demon/Live From the Haunted Candle Shop/16 Mold en Mono.mp3'
p520
aS'/home/stoye/Media/other-hd-music/music/Lemon Demon/Live From the Haunted Candle Shop/16 Mold en Mono.mp3'
p521
aS'/home/stoye/Media/other-hd-music/music/Lewis Black/Anticipation'
p522
aS'/home/stoye/Media/other-hd-music/music/Lewis Black/The Carnegie Hall Performance'
p523
aS'/home/stoye/Media/other-hd-music/music/Lifehouse/Non-Album/Everything.mp3'
p524
aS'/home/stoye/Media/other-hd-music/music/Lifehouse/Non-Album/You and Me.mp3'
p525
aS'/home/stoye/Media/other-hd-music/music/Lifehouse/Non-Album/You and Me.mp3'
p526
aS'/home/stoye/Media/other-hd-music/music/Linkin Park/Living Things/01 Lost in the Echo.mp3'
p527
aS'/home/stoye/Media/other-hd-music/music/Linkin Park/Living Things/01 Lost in the Echo.mp3'
p528
aS'/home/stoye/Media/other-hd-music/music/Linkin Park/Non-Album/Lying From You.mp3'
p529
aS'/home/stoye/Media/other-hd-music/music/Linkin Park/Non-Album/Lying From You.mp3'
p530
aS'/home/stoye/Media/other-hd-music/music/London Symphony Orchestra/Symphony No. 1 The Lord of the Rings'
p531
aS'/home/stoye/Media/other-hd-music/music/M. Ward/Non-Album/Me and My Shadow.mp3'
p532
aS'/home/stoye/Media/other-hd-music/music/M. Ward/Non-Album/Me and My Shadow.mp3'
p533
aS"/home/stoye/Media/other-hd-music/music/M83/Hurry Up, We're Dreaming/02 Midnight City.mp3"
p534
aS"/home/stoye/Media/other-hd-music/music/M83/Hurry Up, We're Dreaming/02 Midnight City.mp3"
p535
aS'/home/stoye/Media/other-hd-music/music/MASHUP'
p536
aS'/home/stoye/Media/other-hd-music/music/Macklemore & Ryan Lewis feat. Wanz/Thrift Shop'
p537
aS'/home/stoye/Media/other-hd-music/music/Major Lance/Non-Album/Monkey Time.mp3'
p538
aS'/home/stoye/Media/other-hd-music/music/Major Lance/Non-Album/Monkey Time.mp3'
p539
aS'/home/stoye/Media/other-hd-music/music/Mandy Moore/Non-Album/Only Hope.mp3'
p540
aS'/home/stoye/Media/other-hd-music/music/Mandy Moore/Non-Album/Only Hope.mp3'
p541
aS'/home/stoye/Media/other-hd-music/music/Marilyn Manson/Non-Album/Tainted Love.mp3'
p542
aS'/home/stoye/Media/other-hd-music/music/Marilyn Manson/Non-Album/Tainted Love.mp3'
p543
aS'/home/stoye/Media/other-hd-music/music/Maroon 5/Hands All Over/05 Never Gonna Leave This Bed.mp3'
p544
aS'/home/stoye/Media/other-hd-music/music/Maroon 5/Hands All Over/13 Moves Like Jagger.mp3'
p545
aS'/home/stoye/Media/other-hd-music/music/Maroon 5/Hands All Over/13 Moves Like Jagger.mp3'
p546
aS"/home/stoye/Media/other-hd-music/music/Maroon 5/It Won't Be Soon Before Long/02 Makes Me Wonder.mp3"
p547
aS"/home/stoye/Media/other-hd-music/music/Maroon 5/It Won't Be Soon Before Long/04 Wake Up Call.mp3"
p548
aS"/home/stoye/Media/other-hd-music/music/Maroon 5/It Won't Be Soon Before Long/04 Wake Up Call.mp3"
p549
aS'/home/stoye/Media/other-hd-music/music/Maroon 5/Misery'
p550
aS'/home/stoye/Media/other-hd-music/music/Maroon 5/Payphone'
p551
aS'/home/stoye/Media/other-hd-music/music/Mashd N Kutcher/Non-Album'
p552
aS'/home/stoye/Media/other-hd-music/music/Mat Kearney/Young Love/02 Ships in the Night.mp3'
p553
aS'/home/stoye/Media/other-hd-music/music/Mat Kearney/Young Love/02 Ships in the Night.mp3'
p554
aS'/home/stoye/Media/other-hd-music/music/Matt Hires/Live From the Hotel Cafe/04 Honey, Let Me Sing You a Song.mp3'
p555
aS'/home/stoye/Media/other-hd-music/music/Matt Hires/Live From the Hotel Cafe/04 Honey, Let Me Sing You a Song.mp3'
p556
aS'/home/stoye/Media/other-hd-music/music/Menahan Street Band/Make the Road by Walking/01 Make the Road by Walking.mp3'
p557
aS'/home/stoye/Media/other-hd-music/music/Menahan Street Band/Make the Road by Walking/01 Make the Road by Walking.mp3'
p558
aS'/home/stoye/Media/other-hd-music/music/Michael Buble/Christmas'
p559
aS"/home/stoye/Media/other-hd-music/music/Michael Buble/Crazy Love/05 Haven't Met You Yet.mp3"
p560
aS"/home/stoye/Media/other-hd-music/music/Michael Buble/Crazy Love/05 Haven't Met You Yet.mp3"
p561
aS'/home/stoye/Media/other-hd-music/music/Michael Giacchino/Up'
p562
aS'/home/stoye/Media/other-hd-music/music/Michael Jackson/The Essential Michael Jackson/17 Beat It.mp3'
p563
aS'/home/stoye/Media/other-hd-music/music/Michael Jackson/The Essential Michael Jackson/17 Beat It.mp3'
p564
aS'/home/stoye/Media/other-hd-music/music/Michael Jackson/Thriller/02 Baby Be Mine.mp3'
p565
aS'/home/stoye/Media/other-hd-music/music/Michael Jackson/Thriller/02 Baby Be Mine.mp3'
p566
aS'/home/stoye/Media/other-hd-music/music/Mike Posner/Non-Album/The Scientist.mp3'
p567
aS'/home/stoye/Media/other-hd-music/music/Mike Posner/Non-Album/The Scientist.mp3'
p568
aS"/home/stoye/Media/other-hd-music/music/Millionaires/Just Got Paid, Let's Get Laid/01 Intro _ Just Got Paid, Let's Get Laid.mp3"
p569
aS"/home/stoye/Media/other-hd-music/music/Millionaires/Just Got Paid, Let's Get Laid/03 I Like Money.mp3"
p570
aS"/home/stoye/Media/other-hd-music/music/Millionaires/Just Got Paid, Let's Get Laid/05 I Move It.mp3"
p571
aS"/home/stoye/Media/other-hd-music/music/Millionaires/Just Got Paid, Let's Get Laid/05 I Move It.mp3"
p572
aS'/home/stoye/Media/other-hd-music/music/Millionaires/Tonight'
p573
aS'/home/stoye/Media/other-hd-music/music/Minus the Bear/Non-Album/Steel and Blood.mp3'
p574
aS'/home/stoye/Media/other-hd-music/music/Minus the Bear/Non-Album/Steel and Blood.mp3'
p575
aS'/home/stoye/Media/other-hd-music/music/Modest Mouse/Non-Album/Float On.mp3'
p576
aS'/home/stoye/Media/other-hd-music/music/Modest Mouse/Non-Album/Float On.mp3'
p577
aS'/home/stoye/Media/other-hd-music/music/Mu Hei Jiang Si/Burn My Dread -Reincarnation_PERSONA3-'
p578
aS'/home/stoye/Media/other-hd-music/music/Mu Hei Jiang Si/Never More -Reincarnation_PERSONA4-'
p579
aS'/home/stoye/Media/other-hd-music/music/Mu Hei Jiang Si/Persona 3'
p580
aS'/home/stoye/Media/other-hd-music/music/Mu Hei Jiang Si/Persona 3 FES'
p581
aS'/home/stoye/Media/other-hd-music/music/Mu Hei Jiang Si/Persona 4'
p582
aS'/home/stoye/Media/other-hd-music/music/Mu Hei Jiang Si/Persona4 Soundtrack Selection'
p583
aS'/home/stoye/Media/other-hd-music/music/Natasha Bedingfield/Unwritten/01 Unwritten.mp3'
p584
aS'/home/stoye/Media/other-hd-music/music/Natasha Bedingfield/Unwritten/01 Unwritten.mp3'
p585
aS'/home/stoye/Media/other-hd-music/music/Ne-Yo/Non-Album/Can We Chill.mp3'
p586
aS'/home/stoye/Media/other-hd-music/music/Ne-Yo/Non-Album/Can We Chill.mp3'
p587
aS'/home/stoye/Media/other-hd-music/music/Neon Trees/Habits/03 Animal.mp3'
p588
aS'/home/stoye/Media/other-hd-music/music/Neon Trees/Habits/03 Animal.mp3'
p589
aS'/home/stoye/Media/other-hd-music/music/Nick Thayer/Like Boom EP'
p590
aS'/home/stoye/Media/other-hd-music/music/Nickelodeon/The Best of Nicktoons'
p591
aS'/home/stoye/Media/other-hd-music/music/Nicole Kidman & Ewan McGregor/Non-Album/Come What May (Film version).mp3'
p592
aS'/home/stoye/Media/other-hd-music/music/Nicole Kidman & Ewan McGregor/Non-Album/Come What May.mp3'
p593
aS'/home/stoye/Media/other-hd-music/music/Nicole Kidman & Ewan McGregor/Non-Album/Come What May.mp3'
p594
aS'/home/stoye/Media/other-hd-music/music/Nicole Kidman, Ewan McGregor & Jamie Allen/Non-Album/Elephant Love Medley.mp3'
p595
aS'/home/stoye/Media/other-hd-music/music/Nicole Kidman, Ewan McGregor & Jamie Allen/Non-Album/Elephant Love Medley.mp3'
p596
aS'/home/stoye/Media/other-hd-music/music/Nightwish/Angels Fall First'
p597
aS'/home/stoye/Media/other-hd-music/music/Nightwish/Century Child'
p598
aS'/home/stoye/Media/other-hd-music/music/Nightwish/Dark Passion Play'
p599
aS'/home/stoye/Media/other-hd-music/music/Nightwish/End of an Era'
p600
aS'/home/stoye/Media/other-hd-music/music/Nightwish/End of an Era 276'
p601
aS'/home/stoye/Media/other-hd-music/music/_..And Sushi! Productions_/Non-Album'
p602
aS'/home/stoye/Media/other-hd-music/music/_/Non-Album/K.K. Good Day.mp3'
p603
aS'/home/stoye/Media/other-hd-music/music/_/Non-Album/Mashup 2014 - 2ne1.mp3'
p604
aS'/home/stoye/Media/other-hd-music/music/_/Non-Album/Show Me Where Ya Noms At.mp3'
p605
aS'/home/stoye/Media/other-hd-music/music/_/Non-Album/Stevie Wonder - Superstition (C2C Remix).mp3'
p606
aS'/home/stoye/Media/other-hd-music/music/_/Non-Album/Stevie Wonder - Superstition (C2C Remix).mp3'
p607
aS'/home/stoye/Media/other-hd-music/music/_Weird Al_ Yankovic/Poodle Hat'
p608
aS'/home/stoye/Media/other-hd-music/music/_Weird Al_ Yankovic/Running With Scissors'
p609
aS'/home/stoye/Media/other-hd-music/music/_Weird Al_ Yankovic/_Weird Al_ Yankovic'
p610
aS'/home/stoye/Media/other-hd-music/music/blink-182/Enema of the State/08 All the Small Things.mp3'
p611
aS'/home/stoye/Media/other-hd-music/music/blink-182/Enema of the State/08 All the Small Things.mp3'
p612
aS"/home/stoye/Media/other-hd-music/music/deadmau5/Non-Album/Moar Ghosts 'n' Stuff.mp3"
p613
aS"/home/stoye/Media/other-hd-music/music/deadmau5/Non-Album/Moar Ghosts 'n' Stuff.mp3"
p614
asS'/home/stoye/Media/deagol-music'
p615
(lp616
S'/home/stoye/Media/deagol-music'
p617
aS'/home/stoye/Media/deagol-music/- Bulldog Mansion - Happy Birthday to Me -.mp3'
p618
aS'/home/stoye/Media/deagol-music/00 INC_MM_IT_STEREO MX__Loop_Ster.mp3'
p619
aS'/home/stoye/Media/deagol-music/00 MP2E_ThemeMusic.mp3'
p620
aS'/home/stoye/Media/deagol-music/00 October 11_ 2010_ PAX Celebrit.mp3'
p621
aS'/home/stoye/Media/deagol-music/00 October 11_ 2010_ PAX Celebrit.mp3'
p622
aS'/home/stoye/Media/deagol-music/00 October 11_ 2010_ PAX Celebrit.mp3'
p623
aS'/home/stoye/Media/deagol-music/00 October 11_ 2010_ PAX Celebrit.mp3'
p624
aS'/home/stoye/Media/deagol-music/00 October 11_ 2010_ PAX Celebrit.mp3'
p625
aS'/home/stoye/Media/deagol-music/00 Penny Arcade_ Episode 1_mp3.mp3'
p626
aS'/home/stoye/Media/deagol-music/00 Penny Arcade_ Episode 1_mp3.mp3'
p627
aS'/home/stoye/Media/deagol-music/00 Penny Arcade_ Episode 1_mp3.mp3'
p628
aS'/home/stoye/Media/deagol-music/00 Penny Arcade_ Episode 1_mp3.mp3'
p629
aS'/home/stoye/Media/deagol-music/00 Penny Arcade_ Episode 1_mp3.mp3'
p630
aS'/home/stoye/Media/deagol-music/00 Penny Arcade_ Episode 2_mp3.mp3'
p631
aS'/home/stoye/Media/deagol-music/00 Penny Arcade_ Episode 2_mp3.mp3'
p632
aS'/home/stoye/Media/deagol-music/00 Penny Arcade_ Episode 2_mp3.mp3'
p633
aS'/home/stoye/Media/deagol-music/00 Penny Arcade_ Episode 2_mp3.mp3'
p634
aS'/home/stoye/Media/deagol-music/00 Penny Arcade_ Episode 2_mp3.mp3'
p635
aS'/home/stoye/Media/deagol-music/00 Penny Arcade_ Episode 3_mp3.mp3'
p636
aS'/home/stoye/Media/deagol-music/00 Penny Arcade_ Episode 3_mp3.mp3'
p637
aS'/home/stoye/Media/deagol-music/00 Penny Arcade_ Episode 3_mp3.mp3'
p638
aS'/home/stoye/Media/deagol-music/00 Penny Arcade_ Episode 3_mp3.mp3'
p639
aS'/home/stoye/Media/deagol-music/00 Penny Arcade_ Episode 3_mp3.mp3'
p640
aS'/home/stoye/Media/deagol-music/00 Penny Arcade_ Episode 4_mp3.mp3'
p641
aS'/home/stoye/Media/deagol-music/00 Penny Arcade_ Episode 4_mp3.mp3'
p642
aS'/home/stoye/Media/deagol-music/00 Penny Arcade_ Episode 4_mp3.mp3'
p643
aS'/home/stoye/Media/deagol-music/00 Penny Arcade_ Episode 4_mp3.mp3'
p644
aS'/home/stoye/Media/deagol-music/00 Penny Arcade_ Episode 4_mp3.mp3'
p645
aS'/home/stoye/Media/deagol-music/00 Penny Arcade_ Episode 5_mp3.mp3'
p646
aS'/home/stoye/Media/deagol-music/00 Penny Arcade_ Episode 5_mp3.mp3'
p647
aS'/home/stoye/Media/deagol-music/00 Penny Arcade_ Episode 5_mp3.mp3'
p648
aS'/home/stoye/Media/deagol-music/00 Penny Arcade_ Episode 5_mp3.mp3'
p649
aS'/home/stoye/Media/deagol-music/00 Penny Arcade_ Episode 5_mp3.mp3'
p650
aS'/home/stoye/Media/deagol-music/00 Penny Arcade_ Episode 6_mp3.mp3'
p651
aS'/home/stoye/Media/deagol-music/00 Penny Arcade_ Episode 6_mp3.mp3'
p652
aS'/home/stoye/Media/deagol-music/00 Penny Arcade_ Episode 6_mp3.mp3'
p653
aS'/home/stoye/Media/deagol-music/00 Penny Arcade_ Episode 6_mp3.mp3'
p654
aS'/home/stoye/Media/deagol-music/00 Penny Arcade_ Episode 6_mp3.mp3'
p655
aS'/home/stoye/Media/deagol-music/00 Penny Arcade_ Episode 7_mp3.mp3'
p656
aS'/home/stoye/Media/deagol-music/00 Penny Arcade_ Episode 7_mp3.mp3'
p657
aS'/home/stoye/Media/deagol-music/00 Penny Arcade_ Episode 7_mp3.mp3'
p658
aS'/home/stoye/Media/deagol-music/00 Penny Arcade_ Episode 7_mp3.mp3'
p659
aS'/home/stoye/Media/deagol-music/00 Penny Arcade_ Episode 7_mp3.mp3'
p660
aS'/home/stoye/Media/deagol-music/00 Penny Arcade_ Episode 8_mp3.mp3'
p661
aS'/home/stoye/Media/deagol-music/00 Penny Arcade_ Episode 8_mp3.mp3'
p662
aS'/home/stoye/Media/deagol-music/00 Penny Arcade_ Episode 8_mp3.mp3'
p663
aS'/home/stoye/Media/deagol-music/00 Penny Arcade_ Episode 8_mp3.mp3'
p664
aS'/home/stoye/Media/deagol-music/00 Penny Arcade_ Episode 8_mp3.mp3'
p665
aS'/home/stoye/Media/deagol-music/00 September 11_ 2009_ Penny Arca.mp3'
p666
aS'/home/stoye/Media/deagol-music/00 September 11_ 2009_ Penny Arca.mp3'
p667
aS'/home/stoye/Media/deagol-music/00 September 11_ 2009_ Penny Arca.mp3'
p668
aS'/home/stoye/Media/deagol-music/00 September 11_ 2009_ Penny Arca.mp3'
p669
aS'/home/stoye/Media/deagol-music/00 September 11_ 2009_ Penny Arca.mp3'
p670
aS'/home/stoye/Media/deagol-music/00 Skyfall_BD_lp_20_v2.mp3'
p671
aS'/home/stoye/Media/deagol-music/00 haydn-100-i-adagio-allegro.mp3'
p672
aS'/home/stoye/Media/deagol-music/00 haydn-100-ii-allegretto.mp3'
p673
aS'/home/stoye/Media/deagol-music/00 haydn-100-iii-menuet-moderato.mp3'
p674
aS'/home/stoye/Media/deagol-music/00 haydn-100-iv-finale-presto.mp3'
p675
aS'/home/stoye/Media/deagol-music/00 haydn-symphony-1-i-presto.mp3'
p676
aS'/home/stoye/Media/deagol-music/00 haydn-symphony-1-ii-andante.mp3'
p677
aS'/home/stoye/Media/deagol-music/00 haydn-symphony-1-iii-presto.mp3'
p678
aS'/home/stoye/Media/deagol-music/01-Thinking-About-You--Calvin-Harris.mp3'
p679
aS'/home/stoye/Media/deagol-music/10 Coldplay - Princess of China_m.mp3'
p680
aS'/home/stoye/Media/deagol-music/10 Orchestral Zelda.mp3'
p681
aS'/home/stoye/Media/deagol-music/10 Orchestral Zelda.mp3'
p682
aS'/home/stoye/Media/deagol-music/10 Orchestral Zelda.mp3'
p683
aS'/home/stoye/Media/deagol-music/10 Orchestral Zelda.mp3'
p684
aS'/home/stoye/Media/deagol-music/10 Orchestral Zelda.mp3'
p685
aS'/home/stoye/Media/deagol-music/12 To Infinity.mp3'
p686
aS'/home/stoye/Media/deagol-music/12 To Infinity.mp3'
p687
aS'/home/stoye/Media/deagol-music/12 To Infinity.mp3'
p688
aS'/home/stoye/Media/deagol-music/12 To Infinity.mp3'
p689
aS'/home/stoye/Media/deagol-music/12 To Infinity.mp3'
p690
aS'/home/stoye/Media/deagol-music/13 Butt Plug.mp3'
p691
aS'/home/stoye/Media/deagol-music/13 Butt Plug.mp3'
p692
aS'/home/stoye/Media/deagol-music/13 Butt Plug.mp3'
p693
aS'/home/stoye/Media/deagol-music/13 Butt Plug.mp3'
p694
aS'/home/stoye/Media/deagol-music/13 Butt Plug.mp3'
p695
aS'/home/stoye/Media/deagol-music/2NE1'
p696
aS'/home/stoye/Media/deagol-music/2NE1/2010 The First Mini Album'
p697
aS"/home/stoye/Media/deagol-music/2NE1/2nd Mini Album/01 Can't Nobody _Korean Version_(1).mp3"
p698
aS'/home/stoye/Media/deagol-music/3 Minute Mash - Mashd N Kutcher.mp3'
p699
aS'/home/stoye/Media/deagol-music/A-LittleParty-Never-Killed-Nobody.mp3'
p700
aS'/home/stoye/Media/deagol-music/Adele - Set Fire To The Rain.mp3'
p701
aS'/home/stoye/Media/deagol-music/Applause - Lady Gaga.mp3'
p702
aS'/home/stoye/Media/deagol-music/Brunch - Imagine.mp3'
p703
aS'/home/stoye/Media/deagol-music/DJYaliasJY_LoseYourselfToDance_ICant_Master.mp3'
p704
aS'/home/stoye/Media/deagol-music/Daniel Kim - Pop Danthology 2012.mp3'
p705
aS'/home/stoye/Media/deagol-music/David Guetta (feat. Sia) - Titanium.mp3'
p706
aS'/home/stoye/Media/deagol-music/Disco-Inferno.mp3'
p707
aS'/home/stoye/Media/deagol-music/Happy_Birthday_To_Me.mp3'
p708
aS'/home/stoye/Media/deagol-music/Holy_Paradise.mp3'
p709
aS'/home/stoye/Media/deagol-music/Imagine.mp3'
p710
aS'/home/stoye/Media/deagol-music/Isosine - Mashup Manifesto III - 01 Alive.mp3'
p711
aS'/home/stoye/Media/deagol-music/Isosine - Mashup Manifesto III - 02 Comes and Goes.mp3'
p712
aS'/home/stoye/Media/deagol-music/Isosine - Mashup Manifesto III - 03 Home at Night.mp3'
p713
aS'/home/stoye/Media/deagol-music/Isosine - Mashup Manifesto III - 04 They Call Me F.R.E.S.H..mp3'
p714
aS'/home/stoye/Media/deagol-music/Isosine - Mashup Manifesto III - 05 Lights Out.mp3'
p715
aS'/home/stoye/Media/deagol-music/Isosine - Mashup Manifesto III - 06 Claritycraft.mp3'
p716
aS'/home/stoye/Media/deagol-music/Isosine - Mashup Manifesto III - 07 Nonstop Pop 2012.mp3'
p717
aS'/home/stoye/Media/deagol-music/Isosine - Mashup Manifesto III - 08 We Are Coming Undone.mp3'
p718
aS'/home/stoye/Media/deagol-music/Isosine - Mashup Manifesto III - 09 Super Miles.mp3'
p719
aS'/home/stoye/Media/deagol-music/Isosine - Mashup Manifesto III - 10 Radioactive Swimming Pools.mp3'
p720
aS'/home/stoye/Media/deagol-music/Isosine - Mashup Manifesto III - 11 Youth.mp3'
p721
aS'/home/stoye/Media/deagol-music/Isosine - Mashup Manifesto III - 12 Wall of Time.mp3'
p722
aS'/home/stoye/Media/deagol-music/Isosine - Mashup Manifesto III - 13 Howling Hands.mp3'
p723
aS'/home/stoye/Media/deagol-music/K.K. Good Day.mp3'
p724
aS'/home/stoye/Media/deagol-music/Love-Sex-Magic--Bodhi-Remix.mp3'
p725
aS'/home/stoye/Media/deagol-music/Mashup 2014 - 2ne1.mp3'
p726
aS'/home/stoye/Media/deagol-music/Papers_Please_Theme.mp3'
p727
aS'/home/stoye/Media/deagol-music/Papers_Please_Theme.mp3'
p728
aS'/home/stoye/Media/deagol-music/Party-Dragons-and-Hazel-Sunshine--Caravan-Palace-vs-LMFAO-vs-Kelly-Clarkson-vs-Matisyahu-vs-Queen-vs-My-Chemical-Romance.mp3'
p729
aS'/home/stoye/Media/deagol-music/Pegboard-Nerds-and-Tristam--Razor-Sharp.mp3'
p730
aS'/home/stoye/Media/deagol-music/Pop-Danthology2013.mp3'
p731
aS'/home/stoye/Media/deagol-music/Princess-of-Payphone-Blows-The-Whistle--ft-Flo Rida-Wiz Khalifa-Rihanna-Maroon-5-and-Too-Short.mp3'
p732
aS'/home/stoye/Media/deagol-music/Reiteration [EDM.com Exclusive].mp3'
p733
aS'/home/stoye/Media/deagol-music/Robin Skouteris - PopLove  (2012).mp3'
p734
aS'/home/stoye/Media/deagol-music/Robin Skouteris - PopLove 2 (Mashup of 2013).mp3'
p735
aS'/home/stoye/Media/deagol-music/Robin Skouteris - PopLove 3 (Mashup of 2014).mp3'
p736
aS'/home/stoye/Media/deagol-music/Robin Skouteris feat. V.Sigma - The Partition Turndown (Beyonce Vs Dj Snake Vs Lorde).mp3'
p737
aS'/home/stoye/Media/deagol-music/Robin-Skouteris--The-Moonlight-Hotel.mp3'
p738
aS'/home/stoye/Media/deagol-music/Sam-cha_Seong-jing.mp3'
p739
aS'/home/stoye/Media/deagol-music/Schoolboy--Zombies-Ate-My-Neighbours-Original-Mix.mp3'
p740
aS'/home/stoye/Media/deagol-music/Show Me Where Ya Noms At.mp3'
p741
aS'/home/stoye/Media/deagol-music/Stevie Wonder - Superstition (C2C Remix).mp3'
p742
aS'/home/stoye/Media/deagol-music/TABU - wolsik.mp3'
p743
aS'/home/stoye/Media/deagol-music/The-Real-Slim-Shady.mp3'
p744
aS'/home/stoye/Media/deagol-music/There_She_Is.mp3'
p745
aS'/home/stoye/Media/deagol-music/We-Didnt-Start-the-Fire.flac'
p746
aS'/home/stoye/Media/deagol-music/Wiz Khalifa - Black And Yellow (Feat. Juicy J, Snoop Dogg & T-Pain) (G-Mix).mp3'
p747
aS'/home/stoye/Media/deagol-music/Wolsik.mp3'
p748
aS'/home/stoye/Media/deagol-music/Wrecking Me Up.mp3'
p749
aS'/home/stoye/Media/deagol-music/Wrecking Me Up.mp3'
p750
aS'/home/stoye/Media/deagol-music/fire-alarm.flac'
p751
aS"/home/stoye/Media/deagol-music/sssShawnnnn - Mac n' Cheese (live mashup).mp3"
p752
aS'/home/stoye/Media/deagol-music/sssShawnnnn--Pizza-Rolls.mp3'
p753
ass.